ARM GAS  C:\Users\thinhnnh\AppData\Local\Temp\ccaJjb4h.s 			page 1


   1              		.cpu cortex-m0plus
   2              		.arch armv6s-m
   3              		.fpu softvfp
   4              		.eabi_attribute 20, 1
   5              		.eabi_attribute 21, 1
   6              		.eabi_attribute 23, 3
   7              		.eabi_attribute 24, 1
   8              		.eabi_attribute 25, 1
   9              		.eabi_attribute 26, 1
  10              		.eabi_attribute 30, 1
  11              		.eabi_attribute 34, 0
  12              		.eabi_attribute 18, 4
  13              		.file	"main.c"
  14              		.text
  15              	.Ltext0:
  16              		.cfi_sections	.debug_frame
  17              		.section	.text.MX_GPIO_Init,"ax",%progbits
  18              		.align	1
  19              		.syntax unified
  20              		.code	16
  21              		.thumb_func
  23              	MX_GPIO_Init:
  24              	.LFB319:
  25              		.file 1 "Src/main.c"
   1:Src/main.c    **** /* USER CODE BEGIN Header */
   2:Src/main.c    **** /**
   3:Src/main.c    ****   ******************************************************************************
   4:Src/main.c    ****   * @file           : main.c
   5:Src/main.c    ****   * @brief          : Main program body
   6:Src/main.c    ****   ******************************************************************************
   7:Src/main.c    ****   * @attention
   8:Src/main.c    ****   *
   9:Src/main.c    ****   * Copyright (c) 2022 STMicroelectronics.
  10:Src/main.c    ****   * All rights reserved.
  11:Src/main.c    ****   *
  12:Src/main.c    ****   * This software is licensed under terms that can be found in the LICENSE file
  13:Src/main.c    ****   * in the root directory of this software component.
  14:Src/main.c    ****   * If no LICENSE file comes with this software, it is provided AS-IS.
  15:Src/main.c    ****   *
  16:Src/main.c    ****   ******************************************************************************
  17:Src/main.c    ****   */
  18:Src/main.c    **** /* USER CODE END Header */
  19:Src/main.c    **** /* Includes ------------------------------------------------------------------*/
  20:Src/main.c    **** #include "main.h"
  21:Src/main.c    **** 
  22:Src/main.c    **** /* Private includes ----------------------------------------------------------*/
  23:Src/main.c    **** /* USER CODE BEGIN Includes */
  24:Src/main.c    **** #include <stdio.h> 
  25:Src/main.c    **** #include <string.h> 
  26:Src/main.c    **** /* USER CODE END Includes */
  27:Src/main.c    **** 
  28:Src/main.c    **** /* Private typedef -----------------------------------------------------------*/
  29:Src/main.c    **** /* USER CODE BEGIN PTD */
  30:Src/main.c    **** 
  31:Src/main.c    **** /* USER CODE END PTD */
  32:Src/main.c    **** 
  33:Src/main.c    **** /* Private define ------------------------------------------------------------*/
ARM GAS  C:\Users\thinhnnh\AppData\Local\Temp\ccaJjb4h.s 			page 2


  34:Src/main.c    **** /* USER CODE BEGIN PD */
  35:Src/main.c    **** /* USER CODE END PD */
  36:Src/main.c    **** 
  37:Src/main.c    **** /* Private macro -------------------------------------------------------------*/
  38:Src/main.c    **** /* USER CODE BEGIN PM */
  39:Src/main.c    **** 
  40:Src/main.c    **** /* USER CODE END PM */
  41:Src/main.c    **** 
  42:Src/main.c    **** /* Private variables ---------------------------------------------------------*/
  43:Src/main.c    **** TIM_HandleTypeDef htim3;
  44:Src/main.c    **** 
  45:Src/main.c    **** UART_HandleTypeDef huart2;
  46:Src/main.c    **** UART_HandleTypeDef huart4;
  47:Src/main.c    **** 
  48:Src/main.c    **** /* USER CODE BEGIN PV */
  49:Src/main.c    **** uint8_t lorawanData[uartBytes]; 
  50:Src/main.c    **** uint8_t lorawanDataChar = 0; 
  51:Src/main.c    **** uint16_t lorawanDataCount = 0; 
  52:Src/main.c    **** 
  53:Src/main.c    **** uint8_t modbusData[uartBytes];  
  54:Src/main.c    **** uint8_t modbusDataChar = 0; 
  55:Src/main.c    **** uint16_t modbusDataCount = 0; 
  56:Src/main.c    **** 
  57:Src/main.c    **** uint8_t requestModbus1[7] = {0x01, 0x04, 0x00, 0x00, 0x01, 0xD9, 0x30}; 
  58:Src/main.c    **** uint8_t requestModbus2[8] = {0x02, 0x04, 0x00, 0x01, 0x00, 0x04, 0xA0, 0x3A};
  59:Src/main.c    **** 
  60:Src/main.c    **** uint8_t dataFull[50]; 
  61:Src/main.c    **** uint8_t isLampTower = 0;
  62:Src/main.c    **** uint8_t isSensorCounter = 0;
  63:Src/main.c    **** uint8_t lampStatus = 0;
  64:Src/main.c    **** uint8_t sensorCounter1_H = 0, sensorCounter1_L = 0; 
  65:Src/main.c    **** uint8_t sensorCounter2_H = 0, sensorCounter2_L = 0;
  66:Src/main.c    **** uint8_t sensorCounter3_H = 0, sensorCounter3_L = 0; 
  67:Src/main.c    **** 
  68:Src/main.c    **** uint8_t debug = 0; 
  69:Src/main.c    **** 
  70:Src/main.c    **** /* USER CODE END PV */
  71:Src/main.c    **** 
  72:Src/main.c    **** /* Private function prototypes -----------------------------------------------*/
  73:Src/main.c    **** void SystemClock_Config(void);
  74:Src/main.c    **** static void MX_GPIO_Init(void);
  75:Src/main.c    **** static void MX_USART2_UART_Init(void);
  76:Src/main.c    **** static void MX_USART4_UART_Init(void);
  77:Src/main.c    **** static void MX_TIM3_Init(void);
  78:Src/main.c    **** /* USER CODE BEGIN PFP */
  79:Src/main.c    **** void clearData(uint8_t *ptrBuffer, uint16_t sizeBuffer); 
  80:Src/main.c    **** void lorawanTransHandle(void); 
  81:Src/main.c    **** /* USER CODE END PFP */
  82:Src/main.c    **** 
  83:Src/main.c    **** /* Private user code ---------------------------------------------------------*/
  84:Src/main.c    **** /* USER CODE BEGIN 0 */
  85:Src/main.c    **** void HAL_UART_RxCpltCallback(UART_HandleTypeDef *huart) 
  86:Src/main.c    **** {
  87:Src/main.c    ****   UNUSED(huart); 
  88:Src/main.c    **** 
  89:Src/main.c    ****   if(huart->Instance == USART2) 
  90:Src/main.c    ****   {
ARM GAS  C:\Users\thinhnnh\AppData\Local\Temp\ccaJjb4h.s 			page 3


  91:Src/main.c    ****     HAL_UART_Receive_IT(&huart2, &lorawanDataChar, 1); 
  92:Src/main.c    ****     lorawanData[lorawanDataCount] = lorawanDataChar;
  93:Src/main.c    ****     lorawanDataCount++;  
  94:Src/main.c    ****     if(lorawanData[0] == 0xAA) lorawanTransHandle();   
  95:Src/main.c    ****     clearData(lorawanData, uartBytes); 
  96:Src/main.c    ****   } 
  97:Src/main.c    **** 
  98:Src/main.c    ****   if(huart->Instance == USART4) 
  99:Src/main.c    ****   {
 100:Src/main.c    ****     HAL_UART_Receive_IT(&huart4, &modbusDataChar, 1); 
 101:Src/main.c    ****     modbusData[modbusDataCount] = modbusDataChar;  
 102:Src/main.c    ****     modbusDataCount++;  
 103:Src/main.c    ****   } 
 104:Src/main.c    **** }
 105:Src/main.c    **** /* USER CODE END 0 */
 106:Src/main.c    **** 
 107:Src/main.c    **** /**
 108:Src/main.c    ****   * @brief  The application entry point.
 109:Src/main.c    ****   * @retval int
 110:Src/main.c    ****   */
 111:Src/main.c    **** int main(void)
 112:Src/main.c    **** {
 113:Src/main.c    ****   /* USER CODE BEGIN 1 */
 114:Src/main.c    **** 
 115:Src/main.c    ****   /* USER CODE END 1 */
 116:Src/main.c    **** 
 117:Src/main.c    ****   /* MCU Configuration--------------------------------------------------------*/
 118:Src/main.c    **** 
 119:Src/main.c    ****   /* Reset of all peripherals, Initializes the Flash interface and the Systick. */
 120:Src/main.c    ****   HAL_Init();
 121:Src/main.c    **** 
 122:Src/main.c    ****   /* USER CODE BEGIN Init */
 123:Src/main.c    **** 
 124:Src/main.c    ****   /* USER CODE END Init */
 125:Src/main.c    **** 
 126:Src/main.c    ****   /* Configure the system clock */
 127:Src/main.c    ****   SystemClock_Config();
 128:Src/main.c    **** 
 129:Src/main.c    ****   /* USER CODE BEGIN SysInit */
 130:Src/main.c    **** 
 131:Src/main.c    ****   /* USER CODE END SysInit */
 132:Src/main.c    **** 
 133:Src/main.c    ****   /* Initialize all configured peripherals */
 134:Src/main.c    ****   MX_GPIO_Init();
 135:Src/main.c    ****   MX_USART2_UART_Init();
 136:Src/main.c    ****   MX_USART4_UART_Init();
 137:Src/main.c    ****   MX_TIM3_Init();
 138:Src/main.c    ****   /* USER CODE BEGIN 2 */
 139:Src/main.c    ****   HAL_TIM_Base_Start(&htim3); 
 140:Src/main.c    ****   HAL_UART_Receive_IT(&huart2, &lorawanDataChar, 1); 
 141:Src/main.c    ****   HAL_UART_Receive_IT(&huart4, &modbusDataChar, 1); 
 142:Src/main.c    **** 
 143:Src/main.c    ****   /* USER CODE END 2 */
 144:Src/main.c    **** 
 145:Src/main.c    ****   /* Infinite loop */
 146:Src/main.c    ****   /* USER CODE BEGIN WHILE */
 147:Src/main.c    ****   while (1)
ARM GAS  C:\Users\thinhnnh\AppData\Local\Temp\ccaJjb4h.s 			page 4


 148:Src/main.c    ****   { 
 149:Src/main.c    ****     HAL_UART_Transmit(&huart4, requestModbus1, sizeof(requestModbus1), 1000); 
 150:Src/main.c    ****     HAL_Delay(500); 
 151:Src/main.c    **** 
 152:Src/main.c    ****     if(strlen((char*)modbusData) != 0) 
 153:Src/main.c    ****     {
 154:Src/main.c    ****       isLampTower = 1; 
 155:Src/main.c    ****       lampStatus = modbusData[5]; 
 156:Src/main.c    ****     }
 157:Src/main.c    ****     else isLampTower = 0; 
 158:Src/main.c    ****     clearData(modbusData, uartBytes);
 159:Src/main.c    **** 
 160:Src/main.c    ****     HAL_UART_Transmit(&huart4, requestModbus2, sizeof(requestModbus2), 1000); 
 161:Src/main.c    ****     HAL_Delay(500); 
 162:Src/main.c    **** 
 163:Src/main.c    ****     if(strlen((char*)modbusData) != 0) 
 164:Src/main.c    ****     {
 165:Src/main.c    ****       isSensorCounter = 1; 
 166:Src/main.c    ****       sensorCounter1_H = modbusData[3]; 
 167:Src/main.c    ****       sensorCounter1_L = modbusData[4]; 
 168:Src/main.c    ****       sensorCounter2_H = modbusData[5];  
 169:Src/main.c    ****       sensorCounter2_L = modbusData[6];  
 170:Src/main.c    ****       sensorCounter3_H = modbusData[7]; 
 171:Src/main.c    ****       sensorCounter3_L = modbusData[8]; 
 172:Src/main.c    ****     }
 173:Src/main.c    ****     else isSensorCounter = 0; 
 174:Src/main.c    ****     clearData(modbusData, uartBytes); 
 175:Src/main.c    **** 
 176:Src/main.c    ****     
 177:Src/main.c    ****     /* USER CODE END WHILE */
 178:Src/main.c    **** 
 179:Src/main.c    ****     /* USER CODE BEGIN 3 */
 180:Src/main.c    ****   }
 181:Src/main.c    ****   /* USER CODE END 3 */
 182:Src/main.c    **** }
 183:Src/main.c    **** 
 184:Src/main.c    **** /**
 185:Src/main.c    ****   * @brief System Clock Configuration
 186:Src/main.c    ****   * @retval None
 187:Src/main.c    ****   */
 188:Src/main.c    **** void SystemClock_Config(void)
 189:Src/main.c    **** {
 190:Src/main.c    ****   RCC_OscInitTypeDef RCC_OscInitStruct = {0};
 191:Src/main.c    ****   RCC_ClkInitTypeDef RCC_ClkInitStruct = {0};
 192:Src/main.c    **** 
 193:Src/main.c    ****   /** Configure the main internal regulator output voltage
 194:Src/main.c    ****   */
 195:Src/main.c    ****   HAL_PWREx_ControlVoltageScaling(PWR_REGULATOR_VOLTAGE_SCALE1);
 196:Src/main.c    **** 
 197:Src/main.c    ****   /** Initializes the RCC Oscillators according to the specified parameters
 198:Src/main.c    ****   * in the RCC_OscInitTypeDef structure.
 199:Src/main.c    ****   */
 200:Src/main.c    ****   RCC_OscInitStruct.OscillatorType = RCC_OSCILLATORTYPE_HSI;
 201:Src/main.c    ****   RCC_OscInitStruct.HSIState = RCC_HSI_ON;
 202:Src/main.c    ****   RCC_OscInitStruct.HSIDiv = RCC_HSI_DIV1;
 203:Src/main.c    ****   RCC_OscInitStruct.HSICalibrationValue = RCC_HSICALIBRATION_DEFAULT;
 204:Src/main.c    ****   RCC_OscInitStruct.PLL.PLLState = RCC_PLL_NONE;
ARM GAS  C:\Users\thinhnnh\AppData\Local\Temp\ccaJjb4h.s 			page 5


 205:Src/main.c    ****   if (HAL_RCC_OscConfig(&RCC_OscInitStruct) != HAL_OK)
 206:Src/main.c    ****   {
 207:Src/main.c    ****     Error_Handler();
 208:Src/main.c    ****   }
 209:Src/main.c    **** 
 210:Src/main.c    ****   /** Initializes the CPU, AHB and APB buses clocks
 211:Src/main.c    ****   */
 212:Src/main.c    ****   RCC_ClkInitStruct.ClockType = RCC_CLOCKTYPE_HCLK|RCC_CLOCKTYPE_SYSCLK
 213:Src/main.c    ****                               |RCC_CLOCKTYPE_PCLK1;
 214:Src/main.c    ****   RCC_ClkInitStruct.SYSCLKSource = RCC_SYSCLKSOURCE_HSI;
 215:Src/main.c    ****   RCC_ClkInitStruct.AHBCLKDivider = RCC_SYSCLK_DIV1;
 216:Src/main.c    ****   RCC_ClkInitStruct.APB1CLKDivider = RCC_HCLK_DIV1;
 217:Src/main.c    **** 
 218:Src/main.c    ****   if (HAL_RCC_ClockConfig(&RCC_ClkInitStruct, FLASH_LATENCY_0) != HAL_OK)
 219:Src/main.c    ****   {
 220:Src/main.c    ****     Error_Handler();
 221:Src/main.c    ****   }
 222:Src/main.c    **** }
 223:Src/main.c    **** 
 224:Src/main.c    **** /**
 225:Src/main.c    ****   * @brief TIM3 Initialization Function
 226:Src/main.c    ****   * @param None
 227:Src/main.c    ****   * @retval None
 228:Src/main.c    ****   */
 229:Src/main.c    **** static void MX_TIM3_Init(void)
 230:Src/main.c    **** {
 231:Src/main.c    **** 
 232:Src/main.c    ****   /* USER CODE BEGIN TIM3_Init 0 */
 233:Src/main.c    **** 
 234:Src/main.c    ****   /* USER CODE END TIM3_Init 0 */
 235:Src/main.c    **** 
 236:Src/main.c    ****   TIM_ClockConfigTypeDef sClockSourceConfig = {0};
 237:Src/main.c    ****   TIM_MasterConfigTypeDef sMasterConfig = {0};
 238:Src/main.c    **** 
 239:Src/main.c    ****   /* USER CODE BEGIN TIM3_Init 1 */
 240:Src/main.c    **** 
 241:Src/main.c    ****   /* USER CODE END TIM3_Init 1 */
 242:Src/main.c    ****   htim3.Instance = TIM3;
 243:Src/main.c    ****   htim3.Init.Prescaler = 16000;
 244:Src/main.c    ****   htim3.Init.CounterMode = TIM_COUNTERMODE_UP;
 245:Src/main.c    ****   htim3.Init.Period = 65535;
 246:Src/main.c    ****   htim3.Init.ClockDivision = TIM_CLOCKDIVISION_DIV1;
 247:Src/main.c    ****   htim3.Init.AutoReloadPreload = TIM_AUTORELOAD_PRELOAD_ENABLE;
 248:Src/main.c    ****   if (HAL_TIM_Base_Init(&htim3) != HAL_OK)
 249:Src/main.c    ****   {
 250:Src/main.c    ****     Error_Handler();
 251:Src/main.c    ****   }
 252:Src/main.c    ****   sClockSourceConfig.ClockSource = TIM_CLOCKSOURCE_INTERNAL;
 253:Src/main.c    ****   if (HAL_TIM_ConfigClockSource(&htim3, &sClockSourceConfig) != HAL_OK)
 254:Src/main.c    ****   {
 255:Src/main.c    ****     Error_Handler();
 256:Src/main.c    ****   }
 257:Src/main.c    ****   sMasterConfig.MasterOutputTrigger = TIM_TRGO_RESET;
 258:Src/main.c    ****   sMasterConfig.MasterSlaveMode = TIM_MASTERSLAVEMODE_DISABLE;
 259:Src/main.c    ****   if (HAL_TIMEx_MasterConfigSynchronization(&htim3, &sMasterConfig) != HAL_OK)
 260:Src/main.c    ****   {
 261:Src/main.c    ****     Error_Handler();
ARM GAS  C:\Users\thinhnnh\AppData\Local\Temp\ccaJjb4h.s 			page 6


 262:Src/main.c    ****   }
 263:Src/main.c    ****   /* USER CODE BEGIN TIM3_Init 2 */
 264:Src/main.c    **** 
 265:Src/main.c    ****   /* USER CODE END TIM3_Init 2 */
 266:Src/main.c    **** 
 267:Src/main.c    **** }
 268:Src/main.c    **** 
 269:Src/main.c    **** /**
 270:Src/main.c    ****   * @brief USART2 Initialization Function
 271:Src/main.c    ****   * @param None
 272:Src/main.c    ****   * @retval None
 273:Src/main.c    ****   */
 274:Src/main.c    **** static void MX_USART2_UART_Init(void)
 275:Src/main.c    **** {
 276:Src/main.c    **** 
 277:Src/main.c    ****   /* USER CODE BEGIN USART2_Init 0 */
 278:Src/main.c    **** 
 279:Src/main.c    ****   /* USER CODE END USART2_Init 0 */
 280:Src/main.c    **** 
 281:Src/main.c    ****   /* USER CODE BEGIN USART2_Init 1 */
 282:Src/main.c    **** 
 283:Src/main.c    ****   /* USER CODE END USART2_Init 1 */
 284:Src/main.c    ****   huart2.Instance = USART2;
 285:Src/main.c    ****   huart2.Init.BaudRate = 115200;
 286:Src/main.c    ****   huart2.Init.WordLength = UART_WORDLENGTH_8B;
 287:Src/main.c    ****   huart2.Init.StopBits = UART_STOPBITS_1;
 288:Src/main.c    ****   huart2.Init.Parity = UART_PARITY_NONE;
 289:Src/main.c    ****   huart2.Init.Mode = UART_MODE_TX_RX;
 290:Src/main.c    ****   huart2.Init.HwFlowCtl = UART_HWCONTROL_NONE;
 291:Src/main.c    ****   huart2.Init.OverSampling = UART_OVERSAMPLING_16;
 292:Src/main.c    ****   huart2.Init.OneBitSampling = UART_ONE_BIT_SAMPLE_DISABLE;
 293:Src/main.c    ****   huart2.Init.ClockPrescaler = UART_PRESCALER_DIV1;
 294:Src/main.c    ****   huart2.AdvancedInit.AdvFeatureInit = UART_ADVFEATURE_NO_INIT;
 295:Src/main.c    ****   if (HAL_UART_Init(&huart2) != HAL_OK)
 296:Src/main.c    ****   {
 297:Src/main.c    ****     Error_Handler();
 298:Src/main.c    ****   }
 299:Src/main.c    ****   if (HAL_UARTEx_SetTxFifoThreshold(&huart2, UART_TXFIFO_THRESHOLD_1_8) != HAL_OK)
 300:Src/main.c    ****   {
 301:Src/main.c    ****     Error_Handler();
 302:Src/main.c    ****   }
 303:Src/main.c    ****   if (HAL_UARTEx_SetRxFifoThreshold(&huart2, UART_RXFIFO_THRESHOLD_1_8) != HAL_OK)
 304:Src/main.c    ****   {
 305:Src/main.c    ****     Error_Handler();
 306:Src/main.c    ****   }
 307:Src/main.c    ****   if (HAL_UARTEx_DisableFifoMode(&huart2) != HAL_OK)
 308:Src/main.c    ****   {
 309:Src/main.c    ****     Error_Handler();
 310:Src/main.c    ****   }
 311:Src/main.c    ****   /* USER CODE BEGIN USART2_Init 2 */
 312:Src/main.c    **** 
 313:Src/main.c    ****   /* USER CODE END USART2_Init 2 */
 314:Src/main.c    **** 
 315:Src/main.c    **** }
 316:Src/main.c    **** 
 317:Src/main.c    **** /**
 318:Src/main.c    ****   * @brief USART4 Initialization Function
ARM GAS  C:\Users\thinhnnh\AppData\Local\Temp\ccaJjb4h.s 			page 7


 319:Src/main.c    ****   * @param None
 320:Src/main.c    ****   * @retval None
 321:Src/main.c    ****   */
 322:Src/main.c    **** static void MX_USART4_UART_Init(void)
 323:Src/main.c    **** {
 324:Src/main.c    **** 
 325:Src/main.c    ****   /* USER CODE BEGIN USART4_Init 0 */
 326:Src/main.c    **** 
 327:Src/main.c    ****   /* USER CODE END USART4_Init 0 */
 328:Src/main.c    **** 
 329:Src/main.c    ****   /* USER CODE BEGIN USART4_Init 1 */
 330:Src/main.c    **** 
 331:Src/main.c    ****   /* USER CODE END USART4_Init 1 */
 332:Src/main.c    ****   huart4.Instance = USART4;
 333:Src/main.c    ****   huart4.Init.BaudRate = 115200;
 334:Src/main.c    ****   huart4.Init.WordLength = UART_WORDLENGTH_8B;
 335:Src/main.c    ****   huart4.Init.StopBits = UART_STOPBITS_1;
 336:Src/main.c    ****   huart4.Init.Parity = UART_PARITY_NONE;
 337:Src/main.c    ****   huart4.Init.Mode = UART_MODE_TX_RX;
 338:Src/main.c    ****   huart4.Init.HwFlowCtl = UART_HWCONTROL_NONE;
 339:Src/main.c    ****   huart4.Init.OverSampling = UART_OVERSAMPLING_16;
 340:Src/main.c    ****   huart4.Init.OneBitSampling = UART_ONE_BIT_SAMPLE_DISABLE;
 341:Src/main.c    ****   huart4.Init.ClockPrescaler = UART_PRESCALER_DIV1;
 342:Src/main.c    ****   huart4.AdvancedInit.AdvFeatureInit = UART_ADVFEATURE_NO_INIT;
 343:Src/main.c    ****   if (HAL_UART_Init(&huart4) != HAL_OK)
 344:Src/main.c    ****   {
 345:Src/main.c    ****     Error_Handler();
 346:Src/main.c    ****   }
 347:Src/main.c    ****   /* USER CODE BEGIN USART4_Init 2 */
 348:Src/main.c    **** 
 349:Src/main.c    ****   /* USER CODE END USART4_Init 2 */
 350:Src/main.c    **** 
 351:Src/main.c    **** }
 352:Src/main.c    **** 
 353:Src/main.c    **** /**
 354:Src/main.c    ****   * @brief GPIO Initialization Function
 355:Src/main.c    ****   * @param None
 356:Src/main.c    ****   * @retval None
 357:Src/main.c    ****   */
 358:Src/main.c    **** static void MX_GPIO_Init(void)
 359:Src/main.c    **** {
  26              		.loc 1 359 1 view -0
  27              		.cfi_startproc
  28              		@ args = 0, pretend = 0, frame = 8
  29              		@ frame_needed = 0, uses_anonymous_args = 0
  30              		@ link register save eliminated.
  31 0000 82B0     		sub	sp, sp, #8
  32              	.LCFI0:
  33              		.cfi_def_cfa_offset 8
 360:Src/main.c    **** 
 361:Src/main.c    ****   /* GPIO Ports Clock Enable */
 362:Src/main.c    ****   __HAL_RCC_GPIOA_CLK_ENABLE();
  34              		.loc 1 362 3 view .LVU1
  35              	.LBB4:
  36              		.loc 1 362 3 view .LVU2
  37              		.loc 1 362 3 view .LVU3
  38 0002 054A     		ldr	r2, .L2
ARM GAS  C:\Users\thinhnnh\AppData\Local\Temp\ccaJjb4h.s 			page 8


  39 0004 516B     		ldr	r1, [r2, #52]
  40 0006 0123     		movs	r3, #1
  41 0008 1943     		orrs	r1, r3
  42 000a 5163     		str	r1, [r2, #52]
  43              		.loc 1 362 3 view .LVU4
  44 000c 526B     		ldr	r2, [r2, #52]
  45 000e 1340     		ands	r3, r2
  46 0010 0193     		str	r3, [sp, #4]
  47              		.loc 1 362 3 view .LVU5
  48 0012 019B     		ldr	r3, [sp, #4]
  49              	.LBE4:
  50              		.loc 1 362 3 view .LVU6
 363:Src/main.c    **** 
 364:Src/main.c    **** }
  51              		.loc 1 364 1 is_stmt 0 view .LVU7
  52 0014 02B0     		add	sp, sp, #8
  53              		@ sp needed
  54 0016 7047     		bx	lr
  55              	.L3:
  56              		.align	2
  57              	.L2:
  58 0018 00100240 		.word	1073876992
  59              		.cfi_endproc
  60              	.LFE319:
  62              		.section	.text.clearData,"ax",%progbits
  63              		.align	1
  64              		.global	clearData
  65              		.syntax unified
  66              		.code	16
  67              		.thumb_func
  69              	clearData:
  70              	.LVL0:
  71              	.LFB320:
 365:Src/main.c    **** 
 366:Src/main.c    **** /* USER CODE BEGIN 4 */
 367:Src/main.c    **** void clearData(uint8_t *ptrBuffer, uint16_t sizeBuffer)
 368:Src/main.c    **** {
  72              		.loc 1 368 1 is_stmt 1 view -0
  73              		.cfi_startproc
  74              		@ args = 0, pretend = 0, frame = 0
  75              		@ frame_needed = 0, uses_anonymous_args = 0
  76              		.loc 1 368 1 is_stmt 0 view .LVU9
  77 0000 10B5     		push	{r4, lr}
  78              	.LCFI1:
  79              		.cfi_def_cfa_offset 8
  80              		.cfi_offset 4, -8
  81              		.cfi_offset 14, -4
 369:Src/main.c    ****   if(ptrBuffer == &modbusData[0]) modbusDataCount = 0; 
  82              		.loc 1 369 3 is_stmt 1 view .LVU10
  83              		.loc 1 369 5 is_stmt 0 view .LVU11
  84 0002 0C4B     		ldr	r3, .L11
  85 0004 9842     		cmp	r0, r3
  86 0006 04D0     		beq	.L9
 370:Src/main.c    ****   else if(ptrBuffer == &lorawanData[0]) lorawanDataCount = 0; 
  87              		.loc 1 370 8 is_stmt 1 view .LVU12
  88              		.loc 1 370 10 is_stmt 0 view .LVU13
  89 0008 0B4B     		ldr	r3, .L11+4
ARM GAS  C:\Users\thinhnnh\AppData\Local\Temp\ccaJjb4h.s 			page 9


  90 000a 9842     		cmp	r0, r3
  91 000c 05D0     		beq	.L10
  92              	.L6:
 368:Src/main.c    ****   if(ptrBuffer == &modbusData[0]) modbusDataCount = 0; 
  93              		.loc 1 368 1 discriminator 1 view .LVU14
  94 000e 0023     		movs	r3, #0
  95 0010 0CE0     		b	.L7
  96              	.L9:
 369:Src/main.c    ****   if(ptrBuffer == &modbusData[0]) modbusDataCount = 0; 
  97              		.loc 1 369 35 is_stmt 1 discriminator 1 view .LVU15
 369:Src/main.c    ****   if(ptrBuffer == &modbusData[0]) modbusDataCount = 0; 
  98              		.loc 1 369 51 is_stmt 0 discriminator 1 view .LVU16
  99 0012 0A4B     		ldr	r3, .L11+8
 100 0014 0022     		movs	r2, #0
 101 0016 1A80     		strh	r2, [r3]
 102 0018 F9E7     		b	.L6
 103              	.L10:
 104              		.loc 1 370 41 is_stmt 1 discriminator 1 view .LVU17
 105              		.loc 1 370 58 is_stmt 0 discriminator 1 view .LVU18
 106 001a 094B     		ldr	r3, .L11+12
 107 001c 0022     		movs	r2, #0
 108 001e 1A80     		strh	r2, [r3]
 109 0020 F5E7     		b	.L6
 110              	.LVL1:
 111              	.L8:
 112              	.LBB5:
 371:Src/main.c    **** 
 372:Src/main.c    **** 	for(uint16_t i = 0; i < sizeBuffer; i++) ptrBuffer[i] = '\0'; 
 113              		.loc 1 372 43 is_stmt 1 discriminator 3 view .LVU19
 114              		.loc 1 372 52 is_stmt 0 discriminator 3 view .LVU20
 115 0022 C218     		adds	r2, r0, r3
 116              		.loc 1 372 56 discriminator 3 view .LVU21
 117 0024 0024     		movs	r4, #0
 118 0026 1470     		strb	r4, [r2]
 119              		.loc 1 372 38 is_stmt 1 discriminator 3 view .LVU22
 120              		.loc 1 372 39 is_stmt 0 discriminator 3 view .LVU23
 121 0028 0133     		adds	r3, r3, #1
 122              	.LVL2:
 123              		.loc 1 372 39 discriminator 3 view .LVU24
 124 002a 9BB2     		uxth	r3, r3
 125              	.LVL3:
 126              	.L7:
 127              		.loc 1 372 22 is_stmt 1 discriminator 1 view .LVU25
 128              		.loc 1 372 2 is_stmt 0 discriminator 1 view .LVU26
 129 002c 8B42     		cmp	r3, r1
 130 002e F8D3     		bcc	.L8
 131              	.LBE5:
 373:Src/main.c    **** }
 132              		.loc 1 373 1 view .LVU27
 133              		@ sp needed
 134 0030 10BD     		pop	{r4, pc}
 135              	.L12:
 136 0032 C046     		.align	2
 137              	.L11:
 138 0034 00000000 		.word	.LANCHOR0
 139 0038 00000000 		.word	.LANCHOR2
 140 003c 00000000 		.word	.LANCHOR1
ARM GAS  C:\Users\thinhnnh\AppData\Local\Temp\ccaJjb4h.s 			page 10


 141 0040 00000000 		.word	.LANCHOR3
 142              		.cfi_endproc
 143              	.LFE320:
 145              		.section	.text.lorawanTransHandle,"ax",%progbits
 146              		.align	1
 147              		.global	lorawanTransHandle
 148              		.syntax unified
 149              		.code	16
 150              		.thumb_func
 152              	lorawanTransHandle:
 153              	.LFB321:
 374:Src/main.c    **** 
 375:Src/main.c    **** void lorawanTransHandle(void)
 376:Src/main.c    **** {
 154              		.loc 1 376 1 is_stmt 1 view -0
 155              		.cfi_startproc
 156              		@ args = 0, pretend = 0, frame = 0
 157              		@ frame_needed = 0, uses_anonymous_args = 0
 158 0000 10B5     		push	{r4, lr}
 159              	.LCFI2:
 160              		.cfi_def_cfa_offset 8
 161              		.cfi_offset 4, -8
 162              		.cfi_offset 14, -4
 377:Src/main.c    ****   dataFull[0] = 0x01;
 163              		.loc 1 377 3 view .LVU29
 164              		.loc 1 377 15 is_stmt 0 view .LVU30
 165 0002 1E4B     		ldr	r3, .L16
 166 0004 0122     		movs	r2, #1
 167 0006 1A70     		strb	r2, [r3]
 378:Src/main.c    ****   dataFull[1] = 0x01; 
 168              		.loc 1 378 3 is_stmt 1 view .LVU31
 169              		.loc 1 378 15 is_stmt 0 view .LVU32
 170 0008 5A70     		strb	r2, [r3, #1]
 379:Src/main.c    ****   dataFull[2] = 0x01;
 171              		.loc 1 379 3 is_stmt 1 view .LVU33
 172              		.loc 1 379 15 is_stmt 0 view .LVU34
 173 000a 9A70     		strb	r2, [r3, #2]
 380:Src/main.c    ****   dataFull[3] = 0x02;
 174              		.loc 1 380 3 is_stmt 1 view .LVU35
 175              		.loc 1 380 15 is_stmt 0 view .LVU36
 176 000c 0132     		adds	r2, r2, #1
 177 000e DA70     		strb	r2, [r3, #3]
 381:Src/main.c    ****   dataFull[4] = 0x02; 
 178              		.loc 1 381 3 is_stmt 1 view .LVU37
 179              		.loc 1 381 15 is_stmt 0 view .LVU38
 180 0010 1A71     		strb	r2, [r3, #4]
 382:Src/main.c    ****   dataFull[5] = isLampTower; 
 181              		.loc 1 382 3 is_stmt 1 view .LVU39
 182              		.loc 1 382 15 is_stmt 0 view .LVU40
 183 0012 1B4A     		ldr	r2, .L16+4
 184 0014 1278     		ldrb	r2, [r2]
 185 0016 5A71     		strb	r2, [r3, #5]
 383:Src/main.c    ****   dataFull[6] = lampStatus;
 186              		.loc 1 383 3 is_stmt 1 view .LVU41
 187              		.loc 1 383 15 is_stmt 0 view .LVU42
 188 0018 1A4A     		ldr	r2, .L16+8
 189 001a 1278     		ldrb	r2, [r2]
ARM GAS  C:\Users\thinhnnh\AppData\Local\Temp\ccaJjb4h.s 			page 11


 190 001c 9A71     		strb	r2, [r3, #6]
 384:Src/main.c    ****   dataFull[7] = isSensorCounter;
 191              		.loc 1 384 3 is_stmt 1 view .LVU43
 192              		.loc 1 384 15 is_stmt 0 view .LVU44
 193 001e 1A4A     		ldr	r2, .L16+12
 194 0020 1278     		ldrb	r2, [r2]
 195 0022 DA71     		strb	r2, [r3, #7]
 385:Src/main.c    ****   dataFull[8] = sensorCounter1_H; 
 196              		.loc 1 385 3 is_stmt 1 view .LVU45
 197              		.loc 1 385 15 is_stmt 0 view .LVU46
 198 0024 194A     		ldr	r2, .L16+16
 199 0026 1278     		ldrb	r2, [r2]
 200 0028 1A72     		strb	r2, [r3, #8]
 386:Src/main.c    ****   dataFull[9] = sensorCounter1_L; 
 201              		.loc 1 386 3 is_stmt 1 view .LVU47
 202              		.loc 1 386 15 is_stmt 0 view .LVU48
 203 002a 194A     		ldr	r2, .L16+20
 204 002c 1278     		ldrb	r2, [r2]
 205 002e 5A72     		strb	r2, [r3, #9]
 387:Src/main.c    ****   dataFull[10] = sensorCounter2_H; 
 206              		.loc 1 387 3 is_stmt 1 view .LVU49
 207              		.loc 1 387 16 is_stmt 0 view .LVU50
 208 0030 184A     		ldr	r2, .L16+24
 209 0032 1278     		ldrb	r2, [r2]
 210 0034 9A72     		strb	r2, [r3, #10]
 388:Src/main.c    ****   dataFull[11] = sensorCounter2_L; 
 211              		.loc 1 388 3 is_stmt 1 view .LVU51
 212              		.loc 1 388 16 is_stmt 0 view .LVU52
 213 0036 184A     		ldr	r2, .L16+28
 214 0038 1278     		ldrb	r2, [r2]
 215 003a DA72     		strb	r2, [r3, #11]
 389:Src/main.c    ****   dataFull[12] = sensorCounter3_H; 
 216              		.loc 1 389 3 is_stmt 1 view .LVU53
 217              		.loc 1 389 16 is_stmt 0 view .LVU54
 218 003c 174A     		ldr	r2, .L16+32
 219 003e 1278     		ldrb	r2, [r2]
 220 0040 1A73     		strb	r2, [r3, #12]
 390:Src/main.c    ****   dataFull[13] = sensorCounter3_L;
 221              		.loc 1 390 3 is_stmt 1 view .LVU55
 222              		.loc 1 390 16 is_stmt 0 view .LVU56
 223 0042 174A     		ldr	r2, .L16+36
 224 0044 1278     		ldrb	r2, [r2]
 225 0046 5A73     		strb	r2, [r3, #13]
 391:Src/main.c    **** 
 392:Src/main.c    ****   uint8_t sum = 0; 
 226              		.loc 1 392 3 is_stmt 1 view .LVU57
 227              	.LVL4:
 393:Src/main.c    ****   for(uint8_t i = 5; i < 14; i++) sum += dataFull[i]; 
 228              		.loc 1 393 3 view .LVU58
 229              	.LBB6:
 230              		.loc 1 393 7 view .LVU59
 231              		.loc 1 393 15 is_stmt 0 view .LVU60
 232 0048 0523     		movs	r3, #5
 233              	.LBE6:
 392:Src/main.c    ****   for(uint8_t i = 5; i < 14; i++) sum += dataFull[i]; 
 234              		.loc 1 392 11 view .LVU61
 235 004a 0022     		movs	r2, #0
ARM GAS  C:\Users\thinhnnh\AppData\Local\Temp\ccaJjb4h.s 			page 12


 236              	.LBB7:
 237              		.loc 1 393 3 view .LVU62
 238 004c 05E0     		b	.L14
 239              	.LVL5:
 240              	.L15:
 241              		.loc 1 393 35 is_stmt 1 discriminator 3 view .LVU63
 242              		.loc 1 393 50 is_stmt 0 discriminator 3 view .LVU64
 243 004e 0B49     		ldr	r1, .L16
 244 0050 C95C     		ldrb	r1, [r1, r3]
 245              		.loc 1 393 39 discriminator 3 view .LVU65
 246 0052 8A18     		adds	r2, r1, r2
 247              	.LVL6:
 248              		.loc 1 393 39 discriminator 3 view .LVU66
 249 0054 D2B2     		uxtb	r2, r2
 250              	.LVL7:
 251              		.loc 1 393 30 is_stmt 1 discriminator 3 view .LVU67
 252              		.loc 1 393 31 is_stmt 0 discriminator 3 view .LVU68
 253 0056 0133     		adds	r3, r3, #1
 254              	.LVL8:
 255              		.loc 1 393 31 discriminator 3 view .LVU69
 256 0058 DBB2     		uxtb	r3, r3
 257              	.LVL9:
 258              	.L14:
 259              		.loc 1 393 22 is_stmt 1 discriminator 1 view .LVU70
 260              		.loc 1 393 3 is_stmt 0 discriminator 1 view .LVU71
 261 005a 0D2B     		cmp	r3, #13
 262 005c F7D9     		bls	.L15
 263              	.LBE7:
 394:Src/main.c    ****   dataFull[14] = sum;  
 264              		.loc 1 394 3 is_stmt 1 view .LVU72
 265              		.loc 1 394 16 is_stmt 0 view .LVU73
 266 005e 074C     		ldr	r4, .L16
 267 0060 A273     		strb	r2, [r4, #14]
 395:Src/main.c    **** 
 396:Src/main.c    ****   HAL_UART_Transmit(&huart2, dataFull, 15, 1000);  
 268              		.loc 1 396 3 is_stmt 1 view .LVU74
 269 0062 FA23     		movs	r3, #250
 270              	.LVL10:
 271              		.loc 1 396 3 is_stmt 0 view .LVU75
 272 0064 9B00     		lsls	r3, r3, #2
 273 0066 0F22     		movs	r2, #15
 274              	.LVL11:
 275              		.loc 1 396 3 view .LVU76
 276 0068 2100     		movs	r1, r4
 277 006a 0E48     		ldr	r0, .L16+40
 278 006c FFF7FEFF 		bl	HAL_UART_Transmit
 279              	.LVL12:
 397:Src/main.c    ****   clearData(dataFull, 50);  
 280              		.loc 1 397 3 is_stmt 1 view .LVU77
 281 0070 3221     		movs	r1, #50
 282 0072 2000     		movs	r0, r4
 283 0074 FFF7FEFF 		bl	clearData
 284              	.LVL13:
 398:Src/main.c    **** }
 285              		.loc 1 398 1 is_stmt 0 view .LVU78
 286              		@ sp needed
 287 0078 10BD     		pop	{r4, pc}
ARM GAS  C:\Users\thinhnnh\AppData\Local\Temp\ccaJjb4h.s 			page 13


 288              	.L17:
 289 007a C046     		.align	2
 290              	.L16:
 291 007c 00000000 		.word	.LANCHOR4
 292 0080 00000000 		.word	.LANCHOR5
 293 0084 00000000 		.word	.LANCHOR6
 294 0088 00000000 		.word	.LANCHOR7
 295 008c 00000000 		.word	.LANCHOR8
 296 0090 00000000 		.word	.LANCHOR9
 297 0094 00000000 		.word	.LANCHOR10
 298 0098 00000000 		.word	.LANCHOR11
 299 009c 00000000 		.word	.LANCHOR12
 300 00a0 00000000 		.word	.LANCHOR13
 301 00a4 00000000 		.word	huart2
 302              		.cfi_endproc
 303              	.LFE321:
 305              		.section	.text.HAL_UART_RxCpltCallback,"ax",%progbits
 306              		.align	1
 307              		.global	HAL_UART_RxCpltCallback
 308              		.syntax unified
 309              		.code	16
 310              		.thumb_func
 312              	HAL_UART_RxCpltCallback:
 313              	.LVL14:
 314              	.LFB313:
  86:Src/main.c    ****   UNUSED(huart); 
 315              		.loc 1 86 1 is_stmt 1 view -0
 316              		.cfi_startproc
 317              		@ args = 0, pretend = 0, frame = 0
 318              		@ frame_needed = 0, uses_anonymous_args = 0
  86:Src/main.c    ****   UNUSED(huart); 
 319              		.loc 1 86 1 is_stmt 0 view .LVU80
 320 0000 70B5     		push	{r4, r5, r6, lr}
 321              	.LCFI3:
 322              		.cfi_def_cfa_offset 16
 323              		.cfi_offset 4, -16
 324              		.cfi_offset 5, -12
 325              		.cfi_offset 6, -8
 326              		.cfi_offset 14, -4
 327 0002 0400     		movs	r4, r0
  87:Src/main.c    **** 
 328              		.loc 1 87 3 is_stmt 1 view .LVU81
  89:Src/main.c    ****   {
 329              		.loc 1 89 3 view .LVU82
  89:Src/main.c    ****   {
 330              		.loc 1 89 5 is_stmt 0 view .LVU83
 331 0004 174B     		ldr	r3, .L25
 332 0006 0268     		ldr	r2, [r0]
 333 0008 9A42     		cmp	r2, r3
 334 000a 04D0     		beq	.L22
 335              	.LVL15:
 336              	.L19:
  98:Src/main.c    ****   {
 337              		.loc 1 98 3 is_stmt 1 view .LVU84
  98:Src/main.c    ****   {
 338              		.loc 1 98 11 is_stmt 0 view .LVU85
 339 000c 2268     		ldr	r2, [r4]
ARM GAS  C:\Users\thinhnnh\AppData\Local\Temp\ccaJjb4h.s 			page 14


  98:Src/main.c    ****   {
 340              		.loc 1 98 5 view .LVU86
 341 000e 164B     		ldr	r3, .L25+4
 342 0010 9A42     		cmp	r2, r3
 343 0012 18D0     		beq	.L23
 344              	.LVL16:
 345              	.L18:
 104:Src/main.c    **** /* USER CODE END 0 */
 346              		.loc 1 104 1 view .LVU87
 347              		@ sp needed
 348 0014 70BD     		pop	{r4, r5, r6, pc}
 349              	.LVL17:
 350              	.L22:
  91:Src/main.c    ****     lorawanData[lorawanDataCount] = lorawanDataChar;
 351              		.loc 1 91 5 is_stmt 1 view .LVU88
 352 0016 154D     		ldr	r5, .L25+8
 353 0018 0122     		movs	r2, #1
 354 001a 2900     		movs	r1, r5
 355 001c 1448     		ldr	r0, .L25+12
 356              	.LVL18:
  91:Src/main.c    ****     lorawanData[lorawanDataCount] = lorawanDataChar;
 357              		.loc 1 91 5 is_stmt 0 view .LVU89
 358 001e FFF7FEFF 		bl	HAL_UART_Receive_IT
 359              	.LVL19:
  92:Src/main.c    ****     lorawanDataCount++;  
 360              		.loc 1 92 5 is_stmt 1 view .LVU90
  92:Src/main.c    ****     lorawanDataCount++;  
 361              		.loc 1 92 16 is_stmt 0 view .LVU91
 362 0022 1449     		ldr	r1, .L25+16
 363 0024 0B88     		ldrh	r3, [r1]
  92:Src/main.c    ****     lorawanDataCount++;  
 364              		.loc 1 92 35 view .LVU92
 365 0026 144A     		ldr	r2, .L25+20
 366 0028 2878     		ldrb	r0, [r5]
 367 002a D054     		strb	r0, [r2, r3]
  93:Src/main.c    ****     if(lorawanData[0] == 0xAA) lorawanTransHandle();   
 368              		.loc 1 93 5 is_stmt 1 view .LVU93
  93:Src/main.c    ****     if(lorawanData[0] == 0xAA) lorawanTransHandle();   
 369              		.loc 1 93 21 is_stmt 0 view .LVU94
 370 002c 0133     		adds	r3, r3, #1
 371 002e 0B80     		strh	r3, [r1]
  94:Src/main.c    ****     clearData(lorawanData, uartBytes); 
 372              		.loc 1 94 5 is_stmt 1 view .LVU95
  94:Src/main.c    ****     clearData(lorawanData, uartBytes); 
 373              		.loc 1 94 19 is_stmt 0 view .LVU96
 374 0030 1378     		ldrb	r3, [r2]
  94:Src/main.c    ****     clearData(lorawanData, uartBytes); 
 375              		.loc 1 94 7 view .LVU97
 376 0032 AA2B     		cmp	r3, #170
 377 0034 04D0     		beq	.L24
 378              	.L20:
  95:Src/main.c    ****   } 
 379              		.loc 1 95 5 is_stmt 1 view .LVU98
 380 0036 3221     		movs	r1, #50
 381 0038 0F48     		ldr	r0, .L25+20
 382 003a FFF7FEFF 		bl	clearData
 383              	.LVL20:
ARM GAS  C:\Users\thinhnnh\AppData\Local\Temp\ccaJjb4h.s 			page 15


 384 003e E5E7     		b	.L19
 385              	.L24:
  94:Src/main.c    ****     clearData(lorawanData, uartBytes); 
 386              		.loc 1 94 32 discriminator 1 view .LVU99
 387 0040 FFF7FEFF 		bl	lorawanTransHandle
 388              	.LVL21:
 389 0044 F7E7     		b	.L20
 390              	.L23:
 100:Src/main.c    ****     modbusData[modbusDataCount] = modbusDataChar;  
 391              		.loc 1 100 5 view .LVU100
 392 0046 0D4C     		ldr	r4, .L25+24
 393              	.LVL22:
 100:Src/main.c    ****     modbusData[modbusDataCount] = modbusDataChar;  
 394              		.loc 1 100 5 is_stmt 0 view .LVU101
 395 0048 0122     		movs	r2, #1
 396 004a 2100     		movs	r1, r4
 397 004c 0C48     		ldr	r0, .L25+28
 398 004e FFF7FEFF 		bl	HAL_UART_Receive_IT
 399              	.LVL23:
 101:Src/main.c    ****     modbusDataCount++;  
 400              		.loc 1 101 5 is_stmt 1 view .LVU102
 101:Src/main.c    ****     modbusDataCount++;  
 401              		.loc 1 101 15 is_stmt 0 view .LVU103
 402 0052 0C4A     		ldr	r2, .L25+32
 403 0054 1388     		ldrh	r3, [r2]
 101:Src/main.c    ****     modbusDataCount++;  
 404              		.loc 1 101 33 view .LVU104
 405 0056 2078     		ldrb	r0, [r4]
 406 0058 0B49     		ldr	r1, .L25+36
 407 005a C854     		strb	r0, [r1, r3]
 102:Src/main.c    ****   } 
 408              		.loc 1 102 5 is_stmt 1 view .LVU105
 102:Src/main.c    ****   } 
 409              		.loc 1 102 20 is_stmt 0 view .LVU106
 410 005c 0133     		adds	r3, r3, #1
 411 005e 1380     		strh	r3, [r2]
 104:Src/main.c    **** /* USER CODE END 0 */
 412              		.loc 1 104 1 view .LVU107
 413 0060 D8E7     		b	.L18
 414              	.L26:
 415 0062 C046     		.align	2
 416              	.L25:
 417 0064 00440040 		.word	1073759232
 418 0068 004C0040 		.word	1073761280
 419 006c 00000000 		.word	.LANCHOR14
 420 0070 00000000 		.word	huart2
 421 0074 00000000 		.word	.LANCHOR3
 422 0078 00000000 		.word	.LANCHOR2
 423 007c 00000000 		.word	.LANCHOR15
 424 0080 00000000 		.word	huart4
 425 0084 00000000 		.word	.LANCHOR1
 426 0088 00000000 		.word	.LANCHOR0
 427              		.cfi_endproc
 428              	.LFE313:
 430              		.section	.text.Error_Handler,"ax",%progbits
 431              		.align	1
 432              		.global	Error_Handler
ARM GAS  C:\Users\thinhnnh\AppData\Local\Temp\ccaJjb4h.s 			page 16


 433              		.syntax unified
 434              		.code	16
 435              		.thumb_func
 437              	Error_Handler:
 438              	.LFB322:
 399:Src/main.c    **** /* USER CODE END 4 */
 400:Src/main.c    **** 
 401:Src/main.c    **** /**
 402:Src/main.c    ****   * @brief  This function is executed in case of error occurrence.
 403:Src/main.c    ****   * @retval None
 404:Src/main.c    ****   */
 405:Src/main.c    **** void Error_Handler(void)
 406:Src/main.c    **** {
 439              		.loc 1 406 1 is_stmt 1 view -0
 440              		.cfi_startproc
 441              		@ Volatile: function does not return.
 442              		@ args = 0, pretend = 0, frame = 0
 443              		@ frame_needed = 0, uses_anonymous_args = 0
 444              		@ link register save eliminated.
 407:Src/main.c    ****   /* USER CODE BEGIN Error_Handler_Debug */
 408:Src/main.c    ****   /* User can add his own implementation to report the HAL error return state */
 409:Src/main.c    ****   __disable_irq();
 445              		.loc 1 409 3 view .LVU109
 446              	.LBB8:
 447              	.LBI8:
 448              		.file 2 "Drivers/CMSIS/Include/cmsis_gcc.h"
   1:Drivers/CMSIS/Include/cmsis_gcc.h **** /**************************************************************************//**
   2:Drivers/CMSIS/Include/cmsis_gcc.h ****  * @file     cmsis_gcc.h
   3:Drivers/CMSIS/Include/cmsis_gcc.h ****  * @brief    CMSIS compiler GCC header file
   4:Drivers/CMSIS/Include/cmsis_gcc.h ****  * @version  V5.2.0
   5:Drivers/CMSIS/Include/cmsis_gcc.h ****  * @date     08. May 2019
   6:Drivers/CMSIS/Include/cmsis_gcc.h ****  ******************************************************************************/
   7:Drivers/CMSIS/Include/cmsis_gcc.h **** /*
   8:Drivers/CMSIS/Include/cmsis_gcc.h ****  * Copyright (c) 2009-2019 Arm Limited. All rights reserved.
   9:Drivers/CMSIS/Include/cmsis_gcc.h ****  *
  10:Drivers/CMSIS/Include/cmsis_gcc.h ****  * SPDX-License-Identifier: Apache-2.0
  11:Drivers/CMSIS/Include/cmsis_gcc.h ****  *
  12:Drivers/CMSIS/Include/cmsis_gcc.h ****  * Licensed under the Apache License, Version 2.0 (the License); you may
  13:Drivers/CMSIS/Include/cmsis_gcc.h ****  * not use this file except in compliance with the License.
  14:Drivers/CMSIS/Include/cmsis_gcc.h ****  * You may obtain a copy of the License at
  15:Drivers/CMSIS/Include/cmsis_gcc.h ****  *
  16:Drivers/CMSIS/Include/cmsis_gcc.h ****  * www.apache.org/licenses/LICENSE-2.0
  17:Drivers/CMSIS/Include/cmsis_gcc.h ****  *
  18:Drivers/CMSIS/Include/cmsis_gcc.h ****  * Unless required by applicable law or agreed to in writing, software
  19:Drivers/CMSIS/Include/cmsis_gcc.h ****  * distributed under the License is distributed on an AS IS BASIS, WITHOUT
  20:Drivers/CMSIS/Include/cmsis_gcc.h ****  * WARRANTIES OR CONDITIONS OF ANY KIND, either express or implied.
  21:Drivers/CMSIS/Include/cmsis_gcc.h ****  * See the License for the specific language governing permissions and
  22:Drivers/CMSIS/Include/cmsis_gcc.h ****  * limitations under the License.
  23:Drivers/CMSIS/Include/cmsis_gcc.h ****  */
  24:Drivers/CMSIS/Include/cmsis_gcc.h **** 
  25:Drivers/CMSIS/Include/cmsis_gcc.h **** #ifndef __CMSIS_GCC_H
  26:Drivers/CMSIS/Include/cmsis_gcc.h **** #define __CMSIS_GCC_H
  27:Drivers/CMSIS/Include/cmsis_gcc.h **** 
  28:Drivers/CMSIS/Include/cmsis_gcc.h **** /* ignore some GCC warnings */
  29:Drivers/CMSIS/Include/cmsis_gcc.h **** #pragma GCC diagnostic push
  30:Drivers/CMSIS/Include/cmsis_gcc.h **** #pragma GCC diagnostic ignored "-Wsign-conversion"
  31:Drivers/CMSIS/Include/cmsis_gcc.h **** #pragma GCC diagnostic ignored "-Wconversion"
ARM GAS  C:\Users\thinhnnh\AppData\Local\Temp\ccaJjb4h.s 			page 17


  32:Drivers/CMSIS/Include/cmsis_gcc.h **** #pragma GCC diagnostic ignored "-Wunused-parameter"
  33:Drivers/CMSIS/Include/cmsis_gcc.h **** 
  34:Drivers/CMSIS/Include/cmsis_gcc.h **** /* Fallback for __has_builtin */
  35:Drivers/CMSIS/Include/cmsis_gcc.h **** #ifndef __has_builtin
  36:Drivers/CMSIS/Include/cmsis_gcc.h ****   #define __has_builtin(x) (0)
  37:Drivers/CMSIS/Include/cmsis_gcc.h **** #endif
  38:Drivers/CMSIS/Include/cmsis_gcc.h **** 
  39:Drivers/CMSIS/Include/cmsis_gcc.h **** /* CMSIS compiler specific defines */
  40:Drivers/CMSIS/Include/cmsis_gcc.h **** #ifndef   __ASM
  41:Drivers/CMSIS/Include/cmsis_gcc.h ****   #define __ASM                                  __asm
  42:Drivers/CMSIS/Include/cmsis_gcc.h **** #endif
  43:Drivers/CMSIS/Include/cmsis_gcc.h **** #ifndef   __INLINE
  44:Drivers/CMSIS/Include/cmsis_gcc.h ****   #define __INLINE                               inline
  45:Drivers/CMSIS/Include/cmsis_gcc.h **** #endif
  46:Drivers/CMSIS/Include/cmsis_gcc.h **** #ifndef   __STATIC_INLINE
  47:Drivers/CMSIS/Include/cmsis_gcc.h ****   #define __STATIC_INLINE                        static inline
  48:Drivers/CMSIS/Include/cmsis_gcc.h **** #endif
  49:Drivers/CMSIS/Include/cmsis_gcc.h **** #ifndef   __STATIC_FORCEINLINE                 
  50:Drivers/CMSIS/Include/cmsis_gcc.h ****   #define __STATIC_FORCEINLINE                   __attribute__((always_inline)) static inline
  51:Drivers/CMSIS/Include/cmsis_gcc.h **** #endif                                           
  52:Drivers/CMSIS/Include/cmsis_gcc.h **** #ifndef   __NO_RETURN
  53:Drivers/CMSIS/Include/cmsis_gcc.h ****   #define __NO_RETURN                            __attribute__((__noreturn__))
  54:Drivers/CMSIS/Include/cmsis_gcc.h **** #endif
  55:Drivers/CMSIS/Include/cmsis_gcc.h **** #ifndef   __USED
  56:Drivers/CMSIS/Include/cmsis_gcc.h ****   #define __USED                                 __attribute__((used))
  57:Drivers/CMSIS/Include/cmsis_gcc.h **** #endif
  58:Drivers/CMSIS/Include/cmsis_gcc.h **** #ifndef   __WEAK
  59:Drivers/CMSIS/Include/cmsis_gcc.h ****   #define __WEAK                                 __attribute__((weak))
  60:Drivers/CMSIS/Include/cmsis_gcc.h **** #endif
  61:Drivers/CMSIS/Include/cmsis_gcc.h **** #ifndef   __PACKED
  62:Drivers/CMSIS/Include/cmsis_gcc.h ****   #define __PACKED                               __attribute__((packed, aligned(1)))
  63:Drivers/CMSIS/Include/cmsis_gcc.h **** #endif
  64:Drivers/CMSIS/Include/cmsis_gcc.h **** #ifndef   __PACKED_STRUCT
  65:Drivers/CMSIS/Include/cmsis_gcc.h ****   #define __PACKED_STRUCT                        struct __attribute__((packed, aligned(1)))
  66:Drivers/CMSIS/Include/cmsis_gcc.h **** #endif
  67:Drivers/CMSIS/Include/cmsis_gcc.h **** #ifndef   __PACKED_UNION
  68:Drivers/CMSIS/Include/cmsis_gcc.h ****   #define __PACKED_UNION                         union __attribute__((packed, aligned(1)))
  69:Drivers/CMSIS/Include/cmsis_gcc.h **** #endif
  70:Drivers/CMSIS/Include/cmsis_gcc.h **** #ifndef   __UNALIGNED_UINT32        /* deprecated */
  71:Drivers/CMSIS/Include/cmsis_gcc.h ****   #pragma GCC diagnostic push
  72:Drivers/CMSIS/Include/cmsis_gcc.h ****   #pragma GCC diagnostic ignored "-Wpacked"
  73:Drivers/CMSIS/Include/cmsis_gcc.h ****   #pragma GCC diagnostic ignored "-Wattributes"
  74:Drivers/CMSIS/Include/cmsis_gcc.h ****   struct __attribute__((packed)) T_UINT32 { uint32_t v; };
  75:Drivers/CMSIS/Include/cmsis_gcc.h ****   #pragma GCC diagnostic pop
  76:Drivers/CMSIS/Include/cmsis_gcc.h ****   #define __UNALIGNED_UINT32(x)                  (((struct T_UINT32 *)(x))->v)
  77:Drivers/CMSIS/Include/cmsis_gcc.h **** #endif
  78:Drivers/CMSIS/Include/cmsis_gcc.h **** #ifndef   __UNALIGNED_UINT16_WRITE
  79:Drivers/CMSIS/Include/cmsis_gcc.h ****   #pragma GCC diagnostic push
  80:Drivers/CMSIS/Include/cmsis_gcc.h ****   #pragma GCC diagnostic ignored "-Wpacked"
  81:Drivers/CMSIS/Include/cmsis_gcc.h ****   #pragma GCC diagnostic ignored "-Wattributes"
  82:Drivers/CMSIS/Include/cmsis_gcc.h ****   __PACKED_STRUCT T_UINT16_WRITE { uint16_t v; };
  83:Drivers/CMSIS/Include/cmsis_gcc.h ****   #pragma GCC diagnostic pop
  84:Drivers/CMSIS/Include/cmsis_gcc.h ****   #define __UNALIGNED_UINT16_WRITE(addr, val)    (void)((((struct T_UINT16_WRITE *)(void *)(addr))-
  85:Drivers/CMSIS/Include/cmsis_gcc.h **** #endif
  86:Drivers/CMSIS/Include/cmsis_gcc.h **** #ifndef   __UNALIGNED_UINT16_READ
  87:Drivers/CMSIS/Include/cmsis_gcc.h ****   #pragma GCC diagnostic push
  88:Drivers/CMSIS/Include/cmsis_gcc.h ****   #pragma GCC diagnostic ignored "-Wpacked"
ARM GAS  C:\Users\thinhnnh\AppData\Local\Temp\ccaJjb4h.s 			page 18


  89:Drivers/CMSIS/Include/cmsis_gcc.h ****   #pragma GCC diagnostic ignored "-Wattributes"
  90:Drivers/CMSIS/Include/cmsis_gcc.h ****   __PACKED_STRUCT T_UINT16_READ { uint16_t v; };
  91:Drivers/CMSIS/Include/cmsis_gcc.h ****   #pragma GCC diagnostic pop
  92:Drivers/CMSIS/Include/cmsis_gcc.h ****   #define __UNALIGNED_UINT16_READ(addr)          (((const struct T_UINT16_READ *)(const void *)(add
  93:Drivers/CMSIS/Include/cmsis_gcc.h **** #endif
  94:Drivers/CMSIS/Include/cmsis_gcc.h **** #ifndef   __UNALIGNED_UINT32_WRITE
  95:Drivers/CMSIS/Include/cmsis_gcc.h ****   #pragma GCC diagnostic push
  96:Drivers/CMSIS/Include/cmsis_gcc.h ****   #pragma GCC diagnostic ignored "-Wpacked"
  97:Drivers/CMSIS/Include/cmsis_gcc.h ****   #pragma GCC diagnostic ignored "-Wattributes"
  98:Drivers/CMSIS/Include/cmsis_gcc.h ****   __PACKED_STRUCT T_UINT32_WRITE { uint32_t v; };
  99:Drivers/CMSIS/Include/cmsis_gcc.h ****   #pragma GCC diagnostic pop
 100:Drivers/CMSIS/Include/cmsis_gcc.h ****   #define __UNALIGNED_UINT32_WRITE(addr, val)    (void)((((struct T_UINT32_WRITE *)(void *)(addr))-
 101:Drivers/CMSIS/Include/cmsis_gcc.h **** #endif
 102:Drivers/CMSIS/Include/cmsis_gcc.h **** #ifndef   __UNALIGNED_UINT32_READ
 103:Drivers/CMSIS/Include/cmsis_gcc.h ****   #pragma GCC diagnostic push
 104:Drivers/CMSIS/Include/cmsis_gcc.h ****   #pragma GCC diagnostic ignored "-Wpacked"
 105:Drivers/CMSIS/Include/cmsis_gcc.h ****   #pragma GCC diagnostic ignored "-Wattributes"
 106:Drivers/CMSIS/Include/cmsis_gcc.h ****   __PACKED_STRUCT T_UINT32_READ { uint32_t v; };
 107:Drivers/CMSIS/Include/cmsis_gcc.h ****   #pragma GCC diagnostic pop
 108:Drivers/CMSIS/Include/cmsis_gcc.h ****   #define __UNALIGNED_UINT32_READ(addr)          (((const struct T_UINT32_READ *)(const void *)(add
 109:Drivers/CMSIS/Include/cmsis_gcc.h **** #endif
 110:Drivers/CMSIS/Include/cmsis_gcc.h **** #ifndef   __ALIGNED
 111:Drivers/CMSIS/Include/cmsis_gcc.h ****   #define __ALIGNED(x)                           __attribute__((aligned(x)))
 112:Drivers/CMSIS/Include/cmsis_gcc.h **** #endif
 113:Drivers/CMSIS/Include/cmsis_gcc.h **** #ifndef   __RESTRICT
 114:Drivers/CMSIS/Include/cmsis_gcc.h ****   #define __RESTRICT                             __restrict
 115:Drivers/CMSIS/Include/cmsis_gcc.h **** #endif
 116:Drivers/CMSIS/Include/cmsis_gcc.h **** #ifndef   __COMPILER_BARRIER
 117:Drivers/CMSIS/Include/cmsis_gcc.h ****   #define __COMPILER_BARRIER()                   __ASM volatile("":::"memory")
 118:Drivers/CMSIS/Include/cmsis_gcc.h **** #endif
 119:Drivers/CMSIS/Include/cmsis_gcc.h **** 
 120:Drivers/CMSIS/Include/cmsis_gcc.h **** /* #########################  Startup and Lowlevel Init  ######################## */
 121:Drivers/CMSIS/Include/cmsis_gcc.h **** 
 122:Drivers/CMSIS/Include/cmsis_gcc.h **** #ifndef __PROGRAM_START
 123:Drivers/CMSIS/Include/cmsis_gcc.h **** 
 124:Drivers/CMSIS/Include/cmsis_gcc.h **** /**
 125:Drivers/CMSIS/Include/cmsis_gcc.h ****   \brief   Initializes data and bss sections
 126:Drivers/CMSIS/Include/cmsis_gcc.h ****   \details This default implementations initialized all data and additional bss
 127:Drivers/CMSIS/Include/cmsis_gcc.h ****            sections relying on .copy.table and .zero.table specified properly
 128:Drivers/CMSIS/Include/cmsis_gcc.h ****            in the used linker script.
 129:Drivers/CMSIS/Include/cmsis_gcc.h ****   
 130:Drivers/CMSIS/Include/cmsis_gcc.h ****  */
 131:Drivers/CMSIS/Include/cmsis_gcc.h **** __STATIC_FORCEINLINE __NO_RETURN void __cmsis_start(void)
 132:Drivers/CMSIS/Include/cmsis_gcc.h **** {
 133:Drivers/CMSIS/Include/cmsis_gcc.h ****   extern void _start(void) __NO_RETURN;
 134:Drivers/CMSIS/Include/cmsis_gcc.h ****   
 135:Drivers/CMSIS/Include/cmsis_gcc.h ****   typedef struct {
 136:Drivers/CMSIS/Include/cmsis_gcc.h ****     uint32_t const* src;
 137:Drivers/CMSIS/Include/cmsis_gcc.h ****     uint32_t* dest;
 138:Drivers/CMSIS/Include/cmsis_gcc.h ****     uint32_t  wlen;
 139:Drivers/CMSIS/Include/cmsis_gcc.h ****   } __copy_table_t;
 140:Drivers/CMSIS/Include/cmsis_gcc.h ****   
 141:Drivers/CMSIS/Include/cmsis_gcc.h ****   typedef struct {
 142:Drivers/CMSIS/Include/cmsis_gcc.h ****     uint32_t* dest;
 143:Drivers/CMSIS/Include/cmsis_gcc.h ****     uint32_t  wlen;
 144:Drivers/CMSIS/Include/cmsis_gcc.h ****   } __zero_table_t;
 145:Drivers/CMSIS/Include/cmsis_gcc.h ****   
ARM GAS  C:\Users\thinhnnh\AppData\Local\Temp\ccaJjb4h.s 			page 19


 146:Drivers/CMSIS/Include/cmsis_gcc.h ****   extern const __copy_table_t __copy_table_start__;
 147:Drivers/CMSIS/Include/cmsis_gcc.h ****   extern const __copy_table_t __copy_table_end__;
 148:Drivers/CMSIS/Include/cmsis_gcc.h ****   extern const __zero_table_t __zero_table_start__;
 149:Drivers/CMSIS/Include/cmsis_gcc.h ****   extern const __zero_table_t __zero_table_end__;
 150:Drivers/CMSIS/Include/cmsis_gcc.h **** 
 151:Drivers/CMSIS/Include/cmsis_gcc.h ****   for (__copy_table_t const* pTable = &__copy_table_start__; pTable < &__copy_table_end__; ++pTable
 152:Drivers/CMSIS/Include/cmsis_gcc.h ****     for(uint32_t i=0u; i<pTable->wlen; ++i) {
 153:Drivers/CMSIS/Include/cmsis_gcc.h ****       pTable->dest[i] = pTable->src[i];
 154:Drivers/CMSIS/Include/cmsis_gcc.h ****     }
 155:Drivers/CMSIS/Include/cmsis_gcc.h ****   }
 156:Drivers/CMSIS/Include/cmsis_gcc.h ****  
 157:Drivers/CMSIS/Include/cmsis_gcc.h ****   for (__zero_table_t const* pTable = &__zero_table_start__; pTable < &__zero_table_end__; ++pTable
 158:Drivers/CMSIS/Include/cmsis_gcc.h ****     for(uint32_t i=0u; i<pTable->wlen; ++i) {
 159:Drivers/CMSIS/Include/cmsis_gcc.h ****       pTable->dest[i] = 0u;
 160:Drivers/CMSIS/Include/cmsis_gcc.h ****     }
 161:Drivers/CMSIS/Include/cmsis_gcc.h ****   }
 162:Drivers/CMSIS/Include/cmsis_gcc.h ****  
 163:Drivers/CMSIS/Include/cmsis_gcc.h ****   _start();
 164:Drivers/CMSIS/Include/cmsis_gcc.h **** }
 165:Drivers/CMSIS/Include/cmsis_gcc.h ****   
 166:Drivers/CMSIS/Include/cmsis_gcc.h **** #define __PROGRAM_START           __cmsis_start
 167:Drivers/CMSIS/Include/cmsis_gcc.h **** #endif
 168:Drivers/CMSIS/Include/cmsis_gcc.h **** 
 169:Drivers/CMSIS/Include/cmsis_gcc.h **** #ifndef __INITIAL_SP
 170:Drivers/CMSIS/Include/cmsis_gcc.h **** #define __INITIAL_SP              __StackTop
 171:Drivers/CMSIS/Include/cmsis_gcc.h **** #endif
 172:Drivers/CMSIS/Include/cmsis_gcc.h **** 
 173:Drivers/CMSIS/Include/cmsis_gcc.h **** #ifndef __STACK_LIMIT
 174:Drivers/CMSIS/Include/cmsis_gcc.h **** #define __STACK_LIMIT             __StackLimit
 175:Drivers/CMSIS/Include/cmsis_gcc.h **** #endif
 176:Drivers/CMSIS/Include/cmsis_gcc.h **** 
 177:Drivers/CMSIS/Include/cmsis_gcc.h **** #ifndef __VECTOR_TABLE
 178:Drivers/CMSIS/Include/cmsis_gcc.h **** #define __VECTOR_TABLE            __Vectors
 179:Drivers/CMSIS/Include/cmsis_gcc.h **** #endif
 180:Drivers/CMSIS/Include/cmsis_gcc.h **** 
 181:Drivers/CMSIS/Include/cmsis_gcc.h **** #ifndef __VECTOR_TABLE_ATTRIBUTE
 182:Drivers/CMSIS/Include/cmsis_gcc.h **** #define __VECTOR_TABLE_ATTRIBUTE  __attribute((used, section(".vectors")))
 183:Drivers/CMSIS/Include/cmsis_gcc.h **** #endif
 184:Drivers/CMSIS/Include/cmsis_gcc.h **** 
 185:Drivers/CMSIS/Include/cmsis_gcc.h **** /* ###########################  Core Function Access  ########################### */
 186:Drivers/CMSIS/Include/cmsis_gcc.h **** /** \ingroup  CMSIS_Core_FunctionInterface
 187:Drivers/CMSIS/Include/cmsis_gcc.h ****     \defgroup CMSIS_Core_RegAccFunctions CMSIS Core Register Access Functions
 188:Drivers/CMSIS/Include/cmsis_gcc.h ****   @{
 189:Drivers/CMSIS/Include/cmsis_gcc.h ****  */
 190:Drivers/CMSIS/Include/cmsis_gcc.h **** 
 191:Drivers/CMSIS/Include/cmsis_gcc.h **** /**
 192:Drivers/CMSIS/Include/cmsis_gcc.h ****   \brief   Enable IRQ Interrupts
 193:Drivers/CMSIS/Include/cmsis_gcc.h ****   \details Enables IRQ interrupts by clearing the I-bit in the CPSR.
 194:Drivers/CMSIS/Include/cmsis_gcc.h ****            Can only be executed in Privileged modes.
 195:Drivers/CMSIS/Include/cmsis_gcc.h ****  */
 196:Drivers/CMSIS/Include/cmsis_gcc.h **** __STATIC_FORCEINLINE void __enable_irq(void)
 197:Drivers/CMSIS/Include/cmsis_gcc.h **** {
 198:Drivers/CMSIS/Include/cmsis_gcc.h ****   __ASM volatile ("cpsie i" : : : "memory");
 199:Drivers/CMSIS/Include/cmsis_gcc.h **** }
 200:Drivers/CMSIS/Include/cmsis_gcc.h **** 
 201:Drivers/CMSIS/Include/cmsis_gcc.h **** 
 202:Drivers/CMSIS/Include/cmsis_gcc.h **** /**
ARM GAS  C:\Users\thinhnnh\AppData\Local\Temp\ccaJjb4h.s 			page 20


 203:Drivers/CMSIS/Include/cmsis_gcc.h ****   \brief   Disable IRQ Interrupts
 204:Drivers/CMSIS/Include/cmsis_gcc.h ****   \details Disables IRQ interrupts by setting the I-bit in the CPSR.
 205:Drivers/CMSIS/Include/cmsis_gcc.h ****            Can only be executed in Privileged modes.
 206:Drivers/CMSIS/Include/cmsis_gcc.h ****  */
 207:Drivers/CMSIS/Include/cmsis_gcc.h **** __STATIC_FORCEINLINE void __disable_irq(void)
 449              		.loc 2 207 27 view .LVU110
 450              	.LBB9:
 208:Drivers/CMSIS/Include/cmsis_gcc.h **** {
 209:Drivers/CMSIS/Include/cmsis_gcc.h ****   __ASM volatile ("cpsid i" : : : "memory");
 451              		.loc 2 209 3 view .LVU111
 452              		.syntax divided
 453              	@ 209 "Drivers/CMSIS/Include/cmsis_gcc.h" 1
 454 0000 72B6     		cpsid i
 455              	@ 0 "" 2
 456              		.thumb
 457              		.syntax unified
 458              	.L28:
 459              	.LBE9:
 460              	.LBE8:
 410:Src/main.c    ****   while (1)
 461              		.loc 1 410 3 discriminator 1 view .LVU112
 411:Src/main.c    ****   {
 412:Src/main.c    ****   }
 462              		.loc 1 412 3 discriminator 1 view .LVU113
 410:Src/main.c    ****   while (1)
 463              		.loc 1 410 9 discriminator 1 view .LVU114
 464 0002 FEE7     		b	.L28
 465              		.cfi_endproc
 466              	.LFE322:
 468              		.section	.text.MX_USART2_UART_Init,"ax",%progbits
 469              		.align	1
 470              		.syntax unified
 471              		.code	16
 472              		.thumb_func
 474              	MX_USART2_UART_Init:
 475              	.LFB317:
 275:Src/main.c    **** 
 476              		.loc 1 275 1 view -0
 477              		.cfi_startproc
 478              		@ args = 0, pretend = 0, frame = 0
 479              		@ frame_needed = 0, uses_anonymous_args = 0
 480 0000 10B5     		push	{r4, lr}
 481              	.LCFI4:
 482              		.cfi_def_cfa_offset 8
 483              		.cfi_offset 4, -8
 484              		.cfi_offset 14, -4
 284:Src/main.c    ****   huart2.Init.BaudRate = 115200;
 485              		.loc 1 284 3 view .LVU116
 284:Src/main.c    ****   huart2.Init.BaudRate = 115200;
 486              		.loc 1 284 19 is_stmt 0 view .LVU117
 487 0002 1748     		ldr	r0, .L38
 488 0004 174B     		ldr	r3, .L38+4
 489 0006 0360     		str	r3, [r0]
 285:Src/main.c    ****   huart2.Init.WordLength = UART_WORDLENGTH_8B;
 490              		.loc 1 285 3 is_stmt 1 view .LVU118
 285:Src/main.c    ****   huart2.Init.WordLength = UART_WORDLENGTH_8B;
 491              		.loc 1 285 24 is_stmt 0 view .LVU119
ARM GAS  C:\Users\thinhnnh\AppData\Local\Temp\ccaJjb4h.s 			page 21


 492 0008 E123     		movs	r3, #225
 493 000a 5B02     		lsls	r3, r3, #9
 494 000c 4360     		str	r3, [r0, #4]
 286:Src/main.c    ****   huart2.Init.StopBits = UART_STOPBITS_1;
 495              		.loc 1 286 3 is_stmt 1 view .LVU120
 286:Src/main.c    ****   huart2.Init.StopBits = UART_STOPBITS_1;
 496              		.loc 1 286 26 is_stmt 0 view .LVU121
 497 000e 0023     		movs	r3, #0
 498 0010 8360     		str	r3, [r0, #8]
 287:Src/main.c    ****   huart2.Init.Parity = UART_PARITY_NONE;
 499              		.loc 1 287 3 is_stmt 1 view .LVU122
 287:Src/main.c    ****   huart2.Init.Parity = UART_PARITY_NONE;
 500              		.loc 1 287 24 is_stmt 0 view .LVU123
 501 0012 C360     		str	r3, [r0, #12]
 288:Src/main.c    ****   huart2.Init.Mode = UART_MODE_TX_RX;
 502              		.loc 1 288 3 is_stmt 1 view .LVU124
 288:Src/main.c    ****   huart2.Init.Mode = UART_MODE_TX_RX;
 503              		.loc 1 288 22 is_stmt 0 view .LVU125
 504 0014 0361     		str	r3, [r0, #16]
 289:Src/main.c    ****   huart2.Init.HwFlowCtl = UART_HWCONTROL_NONE;
 505              		.loc 1 289 3 is_stmt 1 view .LVU126
 289:Src/main.c    ****   huart2.Init.HwFlowCtl = UART_HWCONTROL_NONE;
 506              		.loc 1 289 20 is_stmt 0 view .LVU127
 507 0016 0C22     		movs	r2, #12
 508 0018 4261     		str	r2, [r0, #20]
 290:Src/main.c    ****   huart2.Init.OverSampling = UART_OVERSAMPLING_16;
 509              		.loc 1 290 3 is_stmt 1 view .LVU128
 290:Src/main.c    ****   huart2.Init.OverSampling = UART_OVERSAMPLING_16;
 510              		.loc 1 290 25 is_stmt 0 view .LVU129
 511 001a 8361     		str	r3, [r0, #24]
 291:Src/main.c    ****   huart2.Init.OneBitSampling = UART_ONE_BIT_SAMPLE_DISABLE;
 512              		.loc 1 291 3 is_stmt 1 view .LVU130
 291:Src/main.c    ****   huart2.Init.OneBitSampling = UART_ONE_BIT_SAMPLE_DISABLE;
 513              		.loc 1 291 28 is_stmt 0 view .LVU131
 514 001c C361     		str	r3, [r0, #28]
 292:Src/main.c    ****   huart2.Init.ClockPrescaler = UART_PRESCALER_DIV1;
 515              		.loc 1 292 3 is_stmt 1 view .LVU132
 292:Src/main.c    ****   huart2.Init.ClockPrescaler = UART_PRESCALER_DIV1;
 516              		.loc 1 292 30 is_stmt 0 view .LVU133
 517 001e 0362     		str	r3, [r0, #32]
 293:Src/main.c    ****   huart2.AdvancedInit.AdvFeatureInit = UART_ADVFEATURE_NO_INIT;
 518              		.loc 1 293 3 is_stmt 1 view .LVU134
 293:Src/main.c    ****   huart2.AdvancedInit.AdvFeatureInit = UART_ADVFEATURE_NO_INIT;
 519              		.loc 1 293 30 is_stmt 0 view .LVU135
 520 0020 4362     		str	r3, [r0, #36]
 294:Src/main.c    ****   if (HAL_UART_Init(&huart2) != HAL_OK)
 521              		.loc 1 294 3 is_stmt 1 view .LVU136
 294:Src/main.c    ****   if (HAL_UART_Init(&huart2) != HAL_OK)
 522              		.loc 1 294 38 is_stmt 0 view .LVU137
 523 0022 8362     		str	r3, [r0, #40]
 295:Src/main.c    ****   {
 524              		.loc 1 295 3 is_stmt 1 view .LVU138
 295:Src/main.c    ****   {
 525              		.loc 1 295 7 is_stmt 0 view .LVU139
 526 0024 FFF7FEFF 		bl	HAL_UART_Init
 527              	.LVL24:
 295:Src/main.c    ****   {
ARM GAS  C:\Users\thinhnnh\AppData\Local\Temp\ccaJjb4h.s 			page 22


 528              		.loc 1 295 6 view .LVU140
 529 0028 0028     		cmp	r0, #0
 530 002a 11D1     		bne	.L34
 299:Src/main.c    ****   {
 531              		.loc 1 299 3 is_stmt 1 view .LVU141
 299:Src/main.c    ****   {
 532              		.loc 1 299 7 is_stmt 0 view .LVU142
 533 002c 0021     		movs	r1, #0
 534 002e 0C48     		ldr	r0, .L38
 535 0030 FFF7FEFF 		bl	HAL_UARTEx_SetTxFifoThreshold
 536              	.LVL25:
 299:Src/main.c    ****   {
 537              		.loc 1 299 6 view .LVU143
 538 0034 0028     		cmp	r0, #0
 539 0036 0DD1     		bne	.L35
 303:Src/main.c    ****   {
 540              		.loc 1 303 3 is_stmt 1 view .LVU144
 303:Src/main.c    ****   {
 541              		.loc 1 303 7 is_stmt 0 view .LVU145
 542 0038 0021     		movs	r1, #0
 543 003a 0948     		ldr	r0, .L38
 544 003c FFF7FEFF 		bl	HAL_UARTEx_SetRxFifoThreshold
 545              	.LVL26:
 303:Src/main.c    ****   {
 546              		.loc 1 303 6 view .LVU146
 547 0040 0028     		cmp	r0, #0
 548 0042 09D1     		bne	.L36
 307:Src/main.c    ****   {
 549              		.loc 1 307 3 is_stmt 1 view .LVU147
 307:Src/main.c    ****   {
 550              		.loc 1 307 7 is_stmt 0 view .LVU148
 551 0044 0648     		ldr	r0, .L38
 552 0046 FFF7FEFF 		bl	HAL_UARTEx_DisableFifoMode
 553              	.LVL27:
 307:Src/main.c    ****   {
 554              		.loc 1 307 6 view .LVU149
 555 004a 0028     		cmp	r0, #0
 556 004c 06D1     		bne	.L37
 315:Src/main.c    **** 
 557              		.loc 1 315 1 view .LVU150
 558              		@ sp needed
 559 004e 10BD     		pop	{r4, pc}
 560              	.L34:
 297:Src/main.c    ****   }
 561              		.loc 1 297 5 is_stmt 1 view .LVU151
 562 0050 FFF7FEFF 		bl	Error_Handler
 563              	.LVL28:
 564              	.L35:
 301:Src/main.c    ****   }
 565              		.loc 1 301 5 view .LVU152
 566 0054 FFF7FEFF 		bl	Error_Handler
 567              	.LVL29:
 568              	.L36:
 305:Src/main.c    ****   }
 569              		.loc 1 305 5 view .LVU153
 570 0058 FFF7FEFF 		bl	Error_Handler
 571              	.LVL30:
ARM GAS  C:\Users\thinhnnh\AppData\Local\Temp\ccaJjb4h.s 			page 23


 572              	.L37:
 309:Src/main.c    ****   }
 573              		.loc 1 309 5 view .LVU154
 574 005c FFF7FEFF 		bl	Error_Handler
 575              	.LVL31:
 576              	.L39:
 577              		.align	2
 578              	.L38:
 579 0060 00000000 		.word	huart2
 580 0064 00440040 		.word	1073759232
 581              		.cfi_endproc
 582              	.LFE317:
 584              		.section	.text.MX_USART4_UART_Init,"ax",%progbits
 585              		.align	1
 586              		.syntax unified
 587              		.code	16
 588              		.thumb_func
 590              	MX_USART4_UART_Init:
 591              	.LFB318:
 323:Src/main.c    **** 
 592              		.loc 1 323 1 view -0
 593              		.cfi_startproc
 594              		@ args = 0, pretend = 0, frame = 0
 595              		@ frame_needed = 0, uses_anonymous_args = 0
 596 0000 10B5     		push	{r4, lr}
 597              	.LCFI5:
 598              		.cfi_def_cfa_offset 8
 599              		.cfi_offset 4, -8
 600              		.cfi_offset 14, -4
 332:Src/main.c    ****   huart4.Init.BaudRate = 115200;
 601              		.loc 1 332 3 view .LVU156
 332:Src/main.c    ****   huart4.Init.BaudRate = 115200;
 602              		.loc 1 332 19 is_stmt 0 view .LVU157
 603 0002 0C48     		ldr	r0, .L43
 604 0004 0C4B     		ldr	r3, .L43+4
 605 0006 0360     		str	r3, [r0]
 333:Src/main.c    ****   huart4.Init.WordLength = UART_WORDLENGTH_8B;
 606              		.loc 1 333 3 is_stmt 1 view .LVU158
 333:Src/main.c    ****   huart4.Init.WordLength = UART_WORDLENGTH_8B;
 607              		.loc 1 333 24 is_stmt 0 view .LVU159
 608 0008 E123     		movs	r3, #225
 609 000a 5B02     		lsls	r3, r3, #9
 610 000c 4360     		str	r3, [r0, #4]
 334:Src/main.c    ****   huart4.Init.StopBits = UART_STOPBITS_1;
 611              		.loc 1 334 3 is_stmt 1 view .LVU160
 334:Src/main.c    ****   huart4.Init.StopBits = UART_STOPBITS_1;
 612              		.loc 1 334 26 is_stmt 0 view .LVU161
 613 000e 0023     		movs	r3, #0
 614 0010 8360     		str	r3, [r0, #8]
 335:Src/main.c    ****   huart4.Init.Parity = UART_PARITY_NONE;
 615              		.loc 1 335 3 is_stmt 1 view .LVU162
 335:Src/main.c    ****   huart4.Init.Parity = UART_PARITY_NONE;
 616              		.loc 1 335 24 is_stmt 0 view .LVU163
 617 0012 C360     		str	r3, [r0, #12]
 336:Src/main.c    ****   huart4.Init.Mode = UART_MODE_TX_RX;
 618              		.loc 1 336 3 is_stmt 1 view .LVU164
 336:Src/main.c    ****   huart4.Init.Mode = UART_MODE_TX_RX;
ARM GAS  C:\Users\thinhnnh\AppData\Local\Temp\ccaJjb4h.s 			page 24


 619              		.loc 1 336 22 is_stmt 0 view .LVU165
 620 0014 0361     		str	r3, [r0, #16]
 337:Src/main.c    ****   huart4.Init.HwFlowCtl = UART_HWCONTROL_NONE;
 621              		.loc 1 337 3 is_stmt 1 view .LVU166
 337:Src/main.c    ****   huart4.Init.HwFlowCtl = UART_HWCONTROL_NONE;
 622              		.loc 1 337 20 is_stmt 0 view .LVU167
 623 0016 0C22     		movs	r2, #12
 624 0018 4261     		str	r2, [r0, #20]
 338:Src/main.c    ****   huart4.Init.OverSampling = UART_OVERSAMPLING_16;
 625              		.loc 1 338 3 is_stmt 1 view .LVU168
 338:Src/main.c    ****   huart4.Init.OverSampling = UART_OVERSAMPLING_16;
 626              		.loc 1 338 25 is_stmt 0 view .LVU169
 627 001a 8361     		str	r3, [r0, #24]
 339:Src/main.c    ****   huart4.Init.OneBitSampling = UART_ONE_BIT_SAMPLE_DISABLE;
 628              		.loc 1 339 3 is_stmt 1 view .LVU170
 339:Src/main.c    ****   huart4.Init.OneBitSampling = UART_ONE_BIT_SAMPLE_DISABLE;
 629              		.loc 1 339 28 is_stmt 0 view .LVU171
 630 001c C361     		str	r3, [r0, #28]
 340:Src/main.c    ****   huart4.Init.ClockPrescaler = UART_PRESCALER_DIV1;
 631              		.loc 1 340 3 is_stmt 1 view .LVU172
 340:Src/main.c    ****   huart4.Init.ClockPrescaler = UART_PRESCALER_DIV1;
 632              		.loc 1 340 30 is_stmt 0 view .LVU173
 633 001e 0362     		str	r3, [r0, #32]
 341:Src/main.c    ****   huart4.AdvancedInit.AdvFeatureInit = UART_ADVFEATURE_NO_INIT;
 634              		.loc 1 341 3 is_stmt 1 view .LVU174
 341:Src/main.c    ****   huart4.AdvancedInit.AdvFeatureInit = UART_ADVFEATURE_NO_INIT;
 635              		.loc 1 341 30 is_stmt 0 view .LVU175
 636 0020 4362     		str	r3, [r0, #36]
 342:Src/main.c    ****   if (HAL_UART_Init(&huart4) != HAL_OK)
 637              		.loc 1 342 3 is_stmt 1 view .LVU176
 342:Src/main.c    ****   if (HAL_UART_Init(&huart4) != HAL_OK)
 638              		.loc 1 342 38 is_stmt 0 view .LVU177
 639 0022 8362     		str	r3, [r0, #40]
 343:Src/main.c    ****   {
 640              		.loc 1 343 3 is_stmt 1 view .LVU178
 343:Src/main.c    ****   {
 641              		.loc 1 343 7 is_stmt 0 view .LVU179
 642 0024 FFF7FEFF 		bl	HAL_UART_Init
 643              	.LVL32:
 343:Src/main.c    ****   {
 644              		.loc 1 343 6 view .LVU180
 645 0028 0028     		cmp	r0, #0
 646 002a 00D1     		bne	.L42
 351:Src/main.c    **** 
 647              		.loc 1 351 1 view .LVU181
 648              		@ sp needed
 649 002c 10BD     		pop	{r4, pc}
 650              	.L42:
 345:Src/main.c    ****   }
 651              		.loc 1 345 5 is_stmt 1 view .LVU182
 652 002e FFF7FEFF 		bl	Error_Handler
 653              	.LVL33:
 654              	.L44:
 655 0032 C046     		.align	2
 656              	.L43:
 657 0034 00000000 		.word	huart4
 658 0038 004C0040 		.word	1073761280
ARM GAS  C:\Users\thinhnnh\AppData\Local\Temp\ccaJjb4h.s 			page 25


 659              		.cfi_endproc
 660              	.LFE318:
 662              		.section	.text.MX_TIM3_Init,"ax",%progbits
 663              		.align	1
 664              		.syntax unified
 665              		.code	16
 666              		.thumb_func
 668              	MX_TIM3_Init:
 669              	.LFB316:
 230:Src/main.c    **** 
 670              		.loc 1 230 1 view -0
 671              		.cfi_startproc
 672              		@ args = 0, pretend = 0, frame = 32
 673              		@ frame_needed = 0, uses_anonymous_args = 0
 674 0000 00B5     		push	{lr}
 675              	.LCFI6:
 676              		.cfi_def_cfa_offset 4
 677              		.cfi_offset 14, -4
 678 0002 89B0     		sub	sp, sp, #36
 679              	.LCFI7:
 680              		.cfi_def_cfa_offset 40
 236:Src/main.c    ****   TIM_MasterConfigTypeDef sMasterConfig = {0};
 681              		.loc 1 236 3 view .LVU184
 236:Src/main.c    ****   TIM_MasterConfigTypeDef sMasterConfig = {0};
 682              		.loc 1 236 26 is_stmt 0 view .LVU185
 683 0004 1022     		movs	r2, #16
 684 0006 0021     		movs	r1, #0
 685 0008 04A8     		add	r0, sp, #16
 686 000a FFF7FEFF 		bl	memset
 687              	.LVL34:
 237:Src/main.c    **** 
 688              		.loc 1 237 3 is_stmt 1 view .LVU186
 237:Src/main.c    **** 
 689              		.loc 1 237 27 is_stmt 0 view .LVU187
 690 000e 0C22     		movs	r2, #12
 691 0010 0021     		movs	r1, #0
 692 0012 01A8     		add	r0, sp, #4
 693 0014 FFF7FEFF 		bl	memset
 694              	.LVL35:
 242:Src/main.c    ****   htim3.Init.Prescaler = 16000;
 695              		.loc 1 242 3 is_stmt 1 view .LVU188
 242:Src/main.c    ****   htim3.Init.Prescaler = 16000;
 696              		.loc 1 242 18 is_stmt 0 view .LVU189
 697 0018 1548     		ldr	r0, .L52
 698 001a 164B     		ldr	r3, .L52+4
 699 001c 0360     		str	r3, [r0]
 243:Src/main.c    ****   htim3.Init.CounterMode = TIM_COUNTERMODE_UP;
 700              		.loc 1 243 3 is_stmt 1 view .LVU190
 243:Src/main.c    ****   htim3.Init.CounterMode = TIM_COUNTERMODE_UP;
 701              		.loc 1 243 24 is_stmt 0 view .LVU191
 702 001e FA23     		movs	r3, #250
 703 0020 9B01     		lsls	r3, r3, #6
 704 0022 4360     		str	r3, [r0, #4]
 244:Src/main.c    ****   htim3.Init.Period = 65535;
 705              		.loc 1 244 3 is_stmt 1 view .LVU192
 244:Src/main.c    ****   htim3.Init.Period = 65535;
 706              		.loc 1 244 26 is_stmt 0 view .LVU193
ARM GAS  C:\Users\thinhnnh\AppData\Local\Temp\ccaJjb4h.s 			page 26


 707 0024 0023     		movs	r3, #0
 708 0026 8360     		str	r3, [r0, #8]
 245:Src/main.c    ****   htim3.Init.ClockDivision = TIM_CLOCKDIVISION_DIV1;
 709              		.loc 1 245 3 is_stmt 1 view .LVU194
 245:Src/main.c    ****   htim3.Init.ClockDivision = TIM_CLOCKDIVISION_DIV1;
 710              		.loc 1 245 21 is_stmt 0 view .LVU195
 711 0028 134A     		ldr	r2, .L52+8
 712 002a C260     		str	r2, [r0, #12]
 246:Src/main.c    ****   htim3.Init.AutoReloadPreload = TIM_AUTORELOAD_PRELOAD_ENABLE;
 713              		.loc 1 246 3 is_stmt 1 view .LVU196
 246:Src/main.c    ****   htim3.Init.AutoReloadPreload = TIM_AUTORELOAD_PRELOAD_ENABLE;
 714              		.loc 1 246 28 is_stmt 0 view .LVU197
 715 002c 0361     		str	r3, [r0, #16]
 247:Src/main.c    ****   if (HAL_TIM_Base_Init(&htim3) != HAL_OK)
 716              		.loc 1 247 3 is_stmt 1 view .LVU198
 247:Src/main.c    ****   if (HAL_TIM_Base_Init(&htim3) != HAL_OK)
 717              		.loc 1 247 32 is_stmt 0 view .LVU199
 718 002e 8033     		adds	r3, r3, #128
 719 0030 8361     		str	r3, [r0, #24]
 248:Src/main.c    ****   {
 720              		.loc 1 248 3 is_stmt 1 view .LVU200
 248:Src/main.c    ****   {
 721              		.loc 1 248 7 is_stmt 0 view .LVU201
 722 0032 FFF7FEFF 		bl	HAL_TIM_Base_Init
 723              	.LVL36:
 248:Src/main.c    ****   {
 724              		.loc 1 248 6 view .LVU202
 725 0036 0028     		cmp	r0, #0
 726 0038 13D1     		bne	.L49
 252:Src/main.c    ****   if (HAL_TIM_ConfigClockSource(&htim3, &sClockSourceConfig) != HAL_OK)
 727              		.loc 1 252 3 is_stmt 1 view .LVU203
 252:Src/main.c    ****   if (HAL_TIM_ConfigClockSource(&htim3, &sClockSourceConfig) != HAL_OK)
 728              		.loc 1 252 34 is_stmt 0 view .LVU204
 729 003a 8023     		movs	r3, #128
 730 003c 5B01     		lsls	r3, r3, #5
 731 003e 0493     		str	r3, [sp, #16]
 253:Src/main.c    ****   {
 732              		.loc 1 253 3 is_stmt 1 view .LVU205
 253:Src/main.c    ****   {
 733              		.loc 1 253 7 is_stmt 0 view .LVU206
 734 0040 04A9     		add	r1, sp, #16
 735 0042 0B48     		ldr	r0, .L52
 736 0044 FFF7FEFF 		bl	HAL_TIM_ConfigClockSource
 737              	.LVL37:
 253:Src/main.c    ****   {
 738              		.loc 1 253 6 view .LVU207
 739 0048 0028     		cmp	r0, #0
 740 004a 0CD1     		bne	.L50
 257:Src/main.c    ****   sMasterConfig.MasterSlaveMode = TIM_MASTERSLAVEMODE_DISABLE;
 741              		.loc 1 257 3 is_stmt 1 view .LVU208
 257:Src/main.c    ****   sMasterConfig.MasterSlaveMode = TIM_MASTERSLAVEMODE_DISABLE;
 742              		.loc 1 257 37 is_stmt 0 view .LVU209
 743 004c 0023     		movs	r3, #0
 744 004e 0193     		str	r3, [sp, #4]
 258:Src/main.c    ****   if (HAL_TIMEx_MasterConfigSynchronization(&htim3, &sMasterConfig) != HAL_OK)
 745              		.loc 1 258 3 is_stmt 1 view .LVU210
 258:Src/main.c    ****   if (HAL_TIMEx_MasterConfigSynchronization(&htim3, &sMasterConfig) != HAL_OK)
ARM GAS  C:\Users\thinhnnh\AppData\Local\Temp\ccaJjb4h.s 			page 27


 746              		.loc 1 258 33 is_stmt 0 view .LVU211
 747 0050 0393     		str	r3, [sp, #12]
 259:Src/main.c    ****   {
 748              		.loc 1 259 3 is_stmt 1 view .LVU212
 259:Src/main.c    ****   {
 749              		.loc 1 259 7 is_stmt 0 view .LVU213
 750 0052 01A9     		add	r1, sp, #4
 751 0054 0648     		ldr	r0, .L52
 752 0056 FFF7FEFF 		bl	HAL_TIMEx_MasterConfigSynchronization
 753              	.LVL38:
 259:Src/main.c    ****   {
 754              		.loc 1 259 6 view .LVU214
 755 005a 0028     		cmp	r0, #0
 756 005c 05D1     		bne	.L51
 267:Src/main.c    **** 
 757              		.loc 1 267 1 view .LVU215
 758 005e 09B0     		add	sp, sp, #36
 759              		@ sp needed
 760 0060 00BD     		pop	{pc}
 761              	.L49:
 250:Src/main.c    ****   }
 762              		.loc 1 250 5 is_stmt 1 view .LVU216
 763 0062 FFF7FEFF 		bl	Error_Handler
 764              	.LVL39:
 765              	.L50:
 255:Src/main.c    ****   }
 766              		.loc 1 255 5 view .LVU217
 767 0066 FFF7FEFF 		bl	Error_Handler
 768              	.LVL40:
 769              	.L51:
 261:Src/main.c    ****   }
 770              		.loc 1 261 5 view .LVU218
 771 006a FFF7FEFF 		bl	Error_Handler
 772              	.LVL41:
 773              	.L53:
 774 006e C046     		.align	2
 775              	.L52:
 776 0070 00000000 		.word	.LANCHOR16
 777 0074 00040040 		.word	1073742848
 778 0078 FFFF0000 		.word	65535
 779              		.cfi_endproc
 780              	.LFE316:
 782              		.section	.text.SystemClock_Config,"ax",%progbits
 783              		.align	1
 784              		.global	SystemClock_Config
 785              		.syntax unified
 786              		.code	16
 787              		.thumb_func
 789              	SystemClock_Config:
 790              	.LFB315:
 189:Src/main.c    ****   RCC_OscInitTypeDef RCC_OscInitStruct = {0};
 791              		.loc 1 189 1 view -0
 792              		.cfi_startproc
 793              		@ args = 0, pretend = 0, frame = 72
 794              		@ frame_needed = 0, uses_anonymous_args = 0
 795 0000 00B5     		push	{lr}
 796              	.LCFI8:
ARM GAS  C:\Users\thinhnnh\AppData\Local\Temp\ccaJjb4h.s 			page 28


 797              		.cfi_def_cfa_offset 4
 798              		.cfi_offset 14, -4
 799 0002 93B0     		sub	sp, sp, #76
 800              	.LCFI9:
 801              		.cfi_def_cfa_offset 80
 190:Src/main.c    ****   RCC_ClkInitTypeDef RCC_ClkInitStruct = {0};
 802              		.loc 1 190 3 view .LVU220
 190:Src/main.c    ****   RCC_ClkInitTypeDef RCC_ClkInitStruct = {0};
 803              		.loc 1 190 22 is_stmt 0 view .LVU221
 804 0004 3422     		movs	r2, #52
 805 0006 0021     		movs	r1, #0
 806 0008 05A8     		add	r0, sp, #20
 807 000a FFF7FEFF 		bl	memset
 808              	.LVL42:
 191:Src/main.c    **** 
 809              		.loc 1 191 3 is_stmt 1 view .LVU222
 191:Src/main.c    **** 
 810              		.loc 1 191 22 is_stmt 0 view .LVU223
 811 000e 1022     		movs	r2, #16
 812 0010 0021     		movs	r1, #0
 813 0012 01A8     		add	r0, sp, #4
 814 0014 FFF7FEFF 		bl	memset
 815              	.LVL43:
 195:Src/main.c    **** 
 816              		.loc 1 195 3 is_stmt 1 view .LVU224
 817 0018 8020     		movs	r0, #128
 818 001a 8000     		lsls	r0, r0, #2
 819 001c FFF7FEFF 		bl	HAL_PWREx_ControlVoltageScaling
 820              	.LVL44:
 200:Src/main.c    ****   RCC_OscInitStruct.HSIState = RCC_HSI_ON;
 821              		.loc 1 200 3 view .LVU225
 200:Src/main.c    ****   RCC_OscInitStruct.HSIState = RCC_HSI_ON;
 822              		.loc 1 200 36 is_stmt 0 view .LVU226
 823 0020 0223     		movs	r3, #2
 824 0022 0593     		str	r3, [sp, #20]
 201:Src/main.c    ****   RCC_OscInitStruct.HSIDiv = RCC_HSI_DIV1;
 825              		.loc 1 201 3 is_stmt 1 view .LVU227
 201:Src/main.c    ****   RCC_OscInitStruct.HSIDiv = RCC_HSI_DIV1;
 826              		.loc 1 201 30 is_stmt 0 view .LVU228
 827 0024 FE33     		adds	r3, r3, #254
 828 0026 0893     		str	r3, [sp, #32]
 202:Src/main.c    ****   RCC_OscInitStruct.HSICalibrationValue = RCC_HSICALIBRATION_DEFAULT;
 829              		.loc 1 202 3 is_stmt 1 view .LVU229
 202:Src/main.c    ****   RCC_OscInitStruct.HSICalibrationValue = RCC_HSICALIBRATION_DEFAULT;
 830              		.loc 1 202 28 is_stmt 0 view .LVU230
 831 0028 0023     		movs	r3, #0
 832 002a 0993     		str	r3, [sp, #36]
 203:Src/main.c    ****   RCC_OscInitStruct.PLL.PLLState = RCC_PLL_NONE;
 833              		.loc 1 203 3 is_stmt 1 view .LVU231
 203:Src/main.c    ****   RCC_OscInitStruct.PLL.PLLState = RCC_PLL_NONE;
 834              		.loc 1 203 41 is_stmt 0 view .LVU232
 835 002c 4022     		movs	r2, #64
 836 002e 0A92     		str	r2, [sp, #40]
 204:Src/main.c    ****   if (HAL_RCC_OscConfig(&RCC_OscInitStruct) != HAL_OK)
 837              		.loc 1 204 3 is_stmt 1 view .LVU233
 204:Src/main.c    ****   if (HAL_RCC_OscConfig(&RCC_OscInitStruct) != HAL_OK)
 838              		.loc 1 204 34 is_stmt 0 view .LVU234
ARM GAS  C:\Users\thinhnnh\AppData\Local\Temp\ccaJjb4h.s 			page 29


 839 0030 0C93     		str	r3, [sp, #48]
 205:Src/main.c    ****   {
 840              		.loc 1 205 3 is_stmt 1 view .LVU235
 205:Src/main.c    ****   {
 841              		.loc 1 205 7 is_stmt 0 view .LVU236
 842 0032 05A8     		add	r0, sp, #20
 843 0034 FFF7FEFF 		bl	HAL_RCC_OscConfig
 844              	.LVL45:
 205:Src/main.c    ****   {
 845              		.loc 1 205 6 view .LVU237
 846 0038 0028     		cmp	r0, #0
 847 003a 0DD1     		bne	.L57
 212:Src/main.c    ****                               |RCC_CLOCKTYPE_PCLK1;
 848              		.loc 1 212 3 is_stmt 1 view .LVU238
 212:Src/main.c    ****                               |RCC_CLOCKTYPE_PCLK1;
 849              		.loc 1 212 31 is_stmt 0 view .LVU239
 850 003c 0723     		movs	r3, #7
 851 003e 0193     		str	r3, [sp, #4]
 214:Src/main.c    ****   RCC_ClkInitStruct.AHBCLKDivider = RCC_SYSCLK_DIV1;
 852              		.loc 1 214 3 is_stmt 1 view .LVU240
 214:Src/main.c    ****   RCC_ClkInitStruct.AHBCLKDivider = RCC_SYSCLK_DIV1;
 853              		.loc 1 214 34 is_stmt 0 view .LVU241
 854 0040 0023     		movs	r3, #0
 855 0042 0293     		str	r3, [sp, #8]
 215:Src/main.c    ****   RCC_ClkInitStruct.APB1CLKDivider = RCC_HCLK_DIV1;
 856              		.loc 1 215 3 is_stmt 1 view .LVU242
 215:Src/main.c    ****   RCC_ClkInitStruct.APB1CLKDivider = RCC_HCLK_DIV1;
 857              		.loc 1 215 35 is_stmt 0 view .LVU243
 858 0044 0393     		str	r3, [sp, #12]
 216:Src/main.c    **** 
 859              		.loc 1 216 3 is_stmt 1 view .LVU244
 216:Src/main.c    **** 
 860              		.loc 1 216 36 is_stmt 0 view .LVU245
 861 0046 0493     		str	r3, [sp, #16]
 218:Src/main.c    ****   {
 862              		.loc 1 218 3 is_stmt 1 view .LVU246
 218:Src/main.c    ****   {
 863              		.loc 1 218 7 is_stmt 0 view .LVU247
 864 0048 0021     		movs	r1, #0
 865 004a 01A8     		add	r0, sp, #4
 866 004c FFF7FEFF 		bl	HAL_RCC_ClockConfig
 867              	.LVL46:
 218:Src/main.c    ****   {
 868              		.loc 1 218 6 view .LVU248
 869 0050 0028     		cmp	r0, #0
 870 0052 03D1     		bne	.L58
 222:Src/main.c    **** 
 871              		.loc 1 222 1 view .LVU249
 872 0054 13B0     		add	sp, sp, #76
 873              		@ sp needed
 874 0056 00BD     		pop	{pc}
 875              	.L57:
 207:Src/main.c    ****   }
 876              		.loc 1 207 5 is_stmt 1 view .LVU250
 877 0058 FFF7FEFF 		bl	Error_Handler
 878              	.LVL47:
 879              	.L58:
ARM GAS  C:\Users\thinhnnh\AppData\Local\Temp\ccaJjb4h.s 			page 30


 220:Src/main.c    ****   }
 880              		.loc 1 220 5 view .LVU251
 881 005c FFF7FEFF 		bl	Error_Handler
 882              	.LVL48:
 883              		.cfi_endproc
 884              	.LFE315:
 886              		.section	.text.main,"ax",%progbits
 887              		.align	1
 888              		.global	main
 889              		.syntax unified
 890              		.code	16
 891              		.thumb_func
 893              	main:
 894              	.LFB314:
 112:Src/main.c    ****   /* USER CODE BEGIN 1 */
 895              		.loc 1 112 1 view -0
 896              		.cfi_startproc
 897              		@ Volatile: function does not return.
 898              		@ args = 0, pretend = 0, frame = 0
 899              		@ frame_needed = 0, uses_anonymous_args = 0
 900 0000 10B5     		push	{r4, lr}
 901              	.LCFI10:
 902              		.cfi_def_cfa_offset 8
 903              		.cfi_offset 4, -8
 904              		.cfi_offset 14, -4
 120:Src/main.c    **** 
 905              		.loc 1 120 3 view .LVU253
 906 0002 FFF7FEFF 		bl	HAL_Init
 907              	.LVL49:
 127:Src/main.c    **** 
 908              		.loc 1 127 3 view .LVU254
 909 0006 FFF7FEFF 		bl	SystemClock_Config
 910              	.LVL50:
 134:Src/main.c    ****   MX_USART2_UART_Init();
 911              		.loc 1 134 3 view .LVU255
 912 000a FFF7FEFF 		bl	MX_GPIO_Init
 913              	.LVL51:
 135:Src/main.c    ****   MX_USART4_UART_Init();
 914              		.loc 1 135 3 view .LVU256
 915 000e FFF7FEFF 		bl	MX_USART2_UART_Init
 916              	.LVL52:
 136:Src/main.c    ****   MX_TIM3_Init();
 917              		.loc 1 136 3 view .LVU257
 918 0012 FFF7FEFF 		bl	MX_USART4_UART_Init
 919              	.LVL53:
 137:Src/main.c    ****   /* USER CODE BEGIN 2 */
 920              		.loc 1 137 3 view .LVU258
 921 0016 FFF7FEFF 		bl	MX_TIM3_Init
 922              	.LVL54:
 139:Src/main.c    ****   HAL_UART_Receive_IT(&huart2, &lorawanDataChar, 1); 
 923              		.loc 1 139 3 view .LVU259
 924 001a 2C48     		ldr	r0, .L66
 925 001c FFF7FEFF 		bl	HAL_TIM_Base_Start
 926              	.LVL55:
 140:Src/main.c    ****   HAL_UART_Receive_IT(&huart4, &modbusDataChar, 1); 
 927              		.loc 1 140 3 view .LVU260
 928 0020 0122     		movs	r2, #1
ARM GAS  C:\Users\thinhnnh\AppData\Local\Temp\ccaJjb4h.s 			page 31


 929 0022 2B49     		ldr	r1, .L66+4
 930 0024 2B48     		ldr	r0, .L66+8
 931 0026 FFF7FEFF 		bl	HAL_UART_Receive_IT
 932              	.LVL56:
 141:Src/main.c    **** 
 933              		.loc 1 141 3 view .LVU261
 934 002a 0122     		movs	r2, #1
 935 002c 2A49     		ldr	r1, .L66+12
 936 002e 2B48     		ldr	r0, .L66+16
 937 0030 FFF7FEFF 		bl	HAL_UART_Receive_IT
 938              	.LVL57:
 939 0034 1DE0     		b	.L64
 940              	.L60:
 157:Src/main.c    ****     clearData(modbusData, uartBytes);
 941              		.loc 1 157 10 view .LVU262
 157:Src/main.c    ****     clearData(modbusData, uartBytes);
 942              		.loc 1 157 22 is_stmt 0 view .LVU263
 943 0036 2A4B     		ldr	r3, .L66+20
 944 0038 0022     		movs	r2, #0
 945 003a 1A70     		strb	r2, [r3]
 946 003c 2FE0     		b	.L61
 947              	.L65:
 165:Src/main.c    ****       sensorCounter1_H = modbusData[3]; 
 948              		.loc 1 165 7 is_stmt 1 view .LVU264
 165:Src/main.c    ****       sensorCounter1_H = modbusData[3]; 
 949              		.loc 1 165 23 is_stmt 0 view .LVU265
 950 003e 294B     		ldr	r3, .L66+24
 951 0040 0122     		movs	r2, #1
 952 0042 1A70     		strb	r2, [r3]
 166:Src/main.c    ****       sensorCounter1_L = modbusData[4]; 
 953              		.loc 1 166 7 is_stmt 1 view .LVU266
 166:Src/main.c    ****       sensorCounter1_L = modbusData[4]; 
 954              		.loc 1 166 36 is_stmt 0 view .LVU267
 955 0044 284B     		ldr	r3, .L66+28
 956 0046 D978     		ldrb	r1, [r3, #3]
 166:Src/main.c    ****       sensorCounter1_L = modbusData[4]; 
 957              		.loc 1 166 24 view .LVU268
 958 0048 284A     		ldr	r2, .L66+32
 959 004a 1170     		strb	r1, [r2]
 167:Src/main.c    ****       sensorCounter2_H = modbusData[5];  
 960              		.loc 1 167 7 is_stmt 1 view .LVU269
 167:Src/main.c    ****       sensorCounter2_H = modbusData[5];  
 961              		.loc 1 167 36 is_stmt 0 view .LVU270
 962 004c 1979     		ldrb	r1, [r3, #4]
 167:Src/main.c    ****       sensorCounter2_H = modbusData[5];  
 963              		.loc 1 167 24 view .LVU271
 964 004e 284A     		ldr	r2, .L66+36
 965 0050 1170     		strb	r1, [r2]
 168:Src/main.c    ****       sensorCounter2_L = modbusData[6];  
 966              		.loc 1 168 7 is_stmt 1 view .LVU272
 168:Src/main.c    ****       sensorCounter2_L = modbusData[6];  
 967              		.loc 1 168 36 is_stmt 0 view .LVU273
 968 0052 5979     		ldrb	r1, [r3, #5]
 168:Src/main.c    ****       sensorCounter2_L = modbusData[6];  
 969              		.loc 1 168 24 view .LVU274
 970 0054 274A     		ldr	r2, .L66+40
 971 0056 1170     		strb	r1, [r2]
ARM GAS  C:\Users\thinhnnh\AppData\Local\Temp\ccaJjb4h.s 			page 32


 169:Src/main.c    ****       sensorCounter3_H = modbusData[7]; 
 972              		.loc 1 169 7 is_stmt 1 view .LVU275
 169:Src/main.c    ****       sensorCounter3_H = modbusData[7]; 
 973              		.loc 1 169 36 is_stmt 0 view .LVU276
 974 0058 9979     		ldrb	r1, [r3, #6]
 169:Src/main.c    ****       sensorCounter3_H = modbusData[7]; 
 975              		.loc 1 169 24 view .LVU277
 976 005a 274A     		ldr	r2, .L66+44
 977 005c 1170     		strb	r1, [r2]
 170:Src/main.c    ****       sensorCounter3_L = modbusData[8]; 
 978              		.loc 1 170 7 is_stmt 1 view .LVU278
 170:Src/main.c    ****       sensorCounter3_L = modbusData[8]; 
 979              		.loc 1 170 36 is_stmt 0 view .LVU279
 980 005e D979     		ldrb	r1, [r3, #7]
 170:Src/main.c    ****       sensorCounter3_L = modbusData[8]; 
 981              		.loc 1 170 24 view .LVU280
 982 0060 264A     		ldr	r2, .L66+48
 983 0062 1170     		strb	r1, [r2]
 171:Src/main.c    ****     }
 984              		.loc 1 171 7 is_stmt 1 view .LVU281
 171:Src/main.c    ****     }
 985              		.loc 1 171 36 is_stmt 0 view .LVU282
 986 0064 1A7A     		ldrb	r2, [r3, #8]
 171:Src/main.c    ****     }
 987              		.loc 1 171 24 view .LVU283
 988 0066 264B     		ldr	r3, .L66+52
 989 0068 1A70     		strb	r2, [r3]
 990              	.L63:
 174:Src/main.c    **** 
 991              		.loc 1 174 5 is_stmt 1 view .LVU284
 992 006a 3221     		movs	r1, #50
 993 006c 1E48     		ldr	r0, .L66+28
 994 006e FFF7FEFF 		bl	clearData
 995              	.LVL58:
 147:Src/main.c    ****   { 
 996              		.loc 1 147 9 view .LVU285
 997              	.L64:
 147:Src/main.c    ****   { 
 998              		.loc 1 147 3 view .LVU286
 149:Src/main.c    ****     HAL_Delay(500); 
 999              		.loc 1 149 5 view .LVU287
 1000 0072 FA23     		movs	r3, #250
 1001 0074 9B00     		lsls	r3, r3, #2
 1002 0076 0722     		movs	r2, #7
 1003 0078 2249     		ldr	r1, .L66+56
 1004 007a 1848     		ldr	r0, .L66+16
 1005 007c FFF7FEFF 		bl	HAL_UART_Transmit
 1006              	.LVL59:
 150:Src/main.c    **** 
 1007              		.loc 1 150 5 view .LVU288
 1008 0080 FA20     		movs	r0, #250
 1009 0082 4000     		lsls	r0, r0, #1
 1010 0084 FFF7FEFF 		bl	HAL_Delay
 1011              	.LVL60:
 152:Src/main.c    ****     {
 1012              		.loc 1 152 5 view .LVU289
 152:Src/main.c    ****     {
ARM GAS  C:\Users\thinhnnh\AppData\Local\Temp\ccaJjb4h.s 			page 33


 1013              		.loc 1 152 34 is_stmt 0 view .LVU290
 1014 0088 174B     		ldr	r3, .L66+28
 1015 008a 1B78     		ldrb	r3, [r3]
 152:Src/main.c    ****     {
 1016              		.loc 1 152 7 view .LVU291
 1017 008c 002B     		cmp	r3, #0
 1018 008e D2D0     		beq	.L60
 154:Src/main.c    ****       lampStatus = modbusData[5]; 
 1019              		.loc 1 154 7 is_stmt 1 view .LVU292
 154:Src/main.c    ****       lampStatus = modbusData[5]; 
 1020              		.loc 1 154 19 is_stmt 0 view .LVU293
 1021 0090 134B     		ldr	r3, .L66+20
 1022 0092 0122     		movs	r2, #1
 1023 0094 1A70     		strb	r2, [r3]
 155:Src/main.c    ****     }
 1024              		.loc 1 155 7 is_stmt 1 view .LVU294
 155:Src/main.c    ****     }
 1025              		.loc 1 155 30 is_stmt 0 view .LVU295
 1026 0096 144B     		ldr	r3, .L66+28
 1027 0098 5A79     		ldrb	r2, [r3, #5]
 155:Src/main.c    ****     }
 1028              		.loc 1 155 18 view .LVU296
 1029 009a 1B4B     		ldr	r3, .L66+60
 1030 009c 1A70     		strb	r2, [r3]
 1031              	.L61:
 158:Src/main.c    **** 
 1032              		.loc 1 158 5 is_stmt 1 view .LVU297
 1033 009e 124C     		ldr	r4, .L66+28
 1034 00a0 3221     		movs	r1, #50
 1035 00a2 2000     		movs	r0, r4
 1036 00a4 FFF7FEFF 		bl	clearData
 1037              	.LVL61:
 160:Src/main.c    ****     HAL_Delay(500); 
 1038              		.loc 1 160 5 view .LVU298
 1039 00a8 FA23     		movs	r3, #250
 1040 00aa 9B00     		lsls	r3, r3, #2
 1041 00ac 0822     		movs	r2, #8
 1042 00ae 1749     		ldr	r1, .L66+64
 1043 00b0 0A48     		ldr	r0, .L66+16
 1044 00b2 FFF7FEFF 		bl	HAL_UART_Transmit
 1045              	.LVL62:
 161:Src/main.c    **** 
 1046              		.loc 1 161 5 view .LVU299
 1047 00b6 FA20     		movs	r0, #250
 1048 00b8 4000     		lsls	r0, r0, #1
 1049 00ba FFF7FEFF 		bl	HAL_Delay
 1050              	.LVL63:
 163:Src/main.c    ****     {
 1051              		.loc 1 163 5 view .LVU300
 163:Src/main.c    ****     {
 1052              		.loc 1 163 34 is_stmt 0 view .LVU301
 1053 00be 2378     		ldrb	r3, [r4]
 163:Src/main.c    ****     {
 1054              		.loc 1 163 7 view .LVU302
 1055 00c0 002B     		cmp	r3, #0
 1056 00c2 BCD1     		bne	.L65
 173:Src/main.c    ****     clearData(modbusData, uartBytes); 
ARM GAS  C:\Users\thinhnnh\AppData\Local\Temp\ccaJjb4h.s 			page 34


 1057              		.loc 1 173 10 is_stmt 1 view .LVU303
 173:Src/main.c    ****     clearData(modbusData, uartBytes); 
 1058              		.loc 1 173 26 is_stmt 0 view .LVU304
 1059 00c4 074B     		ldr	r3, .L66+24
 1060 00c6 0022     		movs	r2, #0
 1061 00c8 1A70     		strb	r2, [r3]
 1062 00ca CEE7     		b	.L63
 1063              	.L67:
 1064              		.align	2
 1065              	.L66:
 1066 00cc 00000000 		.word	.LANCHOR16
 1067 00d0 00000000 		.word	.LANCHOR14
 1068 00d4 00000000 		.word	huart2
 1069 00d8 00000000 		.word	.LANCHOR15
 1070 00dc 00000000 		.word	huart4
 1071 00e0 00000000 		.word	.LANCHOR5
 1072 00e4 00000000 		.word	.LANCHOR7
 1073 00e8 00000000 		.word	.LANCHOR0
 1074 00ec 00000000 		.word	.LANCHOR8
 1075 00f0 00000000 		.word	.LANCHOR9
 1076 00f4 00000000 		.word	.LANCHOR10
 1077 00f8 00000000 		.word	.LANCHOR11
 1078 00fc 00000000 		.word	.LANCHOR12
 1079 0100 00000000 		.word	.LANCHOR13
 1080 0104 00000000 		.word	.LANCHOR17
 1081 0108 00000000 		.word	.LANCHOR6
 1082 010c 00000000 		.word	.LANCHOR18
 1083              		.cfi_endproc
 1084              	.LFE314:
 1086              		.global	debug
 1087              		.global	sensorCounter3_L
 1088              		.global	sensorCounter3_H
 1089              		.global	sensorCounter2_L
 1090              		.global	sensorCounter2_H
 1091              		.global	sensorCounter1_L
 1092              		.global	sensorCounter1_H
 1093              		.global	lampStatus
 1094              		.global	isSensorCounter
 1095              		.global	isLampTower
 1096              		.global	dataFull
 1097              		.global	requestModbus2
 1098              		.global	requestModbus1
 1099              		.global	modbusDataCount
 1100              		.global	modbusDataChar
 1101              		.global	modbusData
 1102              		.global	lorawanDataCount
 1103              		.global	lorawanDataChar
 1104              		.global	lorawanData
 1105              		.global	huart4
 1106              		.global	huart2
 1107              		.global	htim3
 1108              		.section	.bss.dataFull,"aw",%nobits
 1109              		.align	2
 1110              		.set	.LANCHOR4,. + 0
 1113              	dataFull:
 1114 0000 00000000 		.space	50
 1114      00000000 
ARM GAS  C:\Users\thinhnnh\AppData\Local\Temp\ccaJjb4h.s 			page 35


 1114      00000000 
 1114      00000000 
 1114      00000000 
 1115              		.section	.bss.debug,"aw",%nobits
 1118              	debug:
 1119 0000 00       		.space	1
 1120              		.section	.bss.htim3,"aw",%nobits
 1121              		.align	2
 1122              		.set	.LANCHOR16,. + 0
 1125              	htim3:
 1126 0000 00000000 		.space	76
 1126      00000000 
 1126      00000000 
 1126      00000000 
 1126      00000000 
 1127              		.section	.bss.huart2,"aw",%nobits
 1128              		.align	2
 1131              	huart2:
 1132 0000 00000000 		.space	148
 1132      00000000 
 1132      00000000 
 1132      00000000 
 1132      00000000 
 1133              		.section	.bss.huart4,"aw",%nobits
 1134              		.align	2
 1137              	huart4:
 1138 0000 00000000 		.space	148
 1138      00000000 
 1138      00000000 
 1138      00000000 
 1138      00000000 
 1139              		.section	.bss.isLampTower,"aw",%nobits
 1140              		.set	.LANCHOR5,. + 0
 1143              	isLampTower:
 1144 0000 00       		.space	1
 1145              		.section	.bss.isSensorCounter,"aw",%nobits
 1146              		.set	.LANCHOR7,. + 0
 1149              	isSensorCounter:
 1150 0000 00       		.space	1
 1151              		.section	.bss.lampStatus,"aw",%nobits
 1152              		.set	.LANCHOR6,. + 0
 1155              	lampStatus:
 1156 0000 00       		.space	1
 1157              		.section	.bss.lorawanData,"aw",%nobits
 1158              		.align	2
 1159              		.set	.LANCHOR2,. + 0
 1162              	lorawanData:
 1163 0000 00000000 		.space	50
 1163      00000000 
 1163      00000000 
 1163      00000000 
 1163      00000000 
 1164              		.section	.bss.lorawanDataChar,"aw",%nobits
 1165              		.set	.LANCHOR14,. + 0
 1168              	lorawanDataChar:
 1169 0000 00       		.space	1
 1170              		.section	.bss.lorawanDataCount,"aw",%nobits
ARM GAS  C:\Users\thinhnnh\AppData\Local\Temp\ccaJjb4h.s 			page 36


 1171              		.align	1
 1172              		.set	.LANCHOR3,. + 0
 1175              	lorawanDataCount:
 1176 0000 0000     		.space	2
 1177              		.section	.bss.modbusData,"aw",%nobits
 1178              		.align	2
 1179              		.set	.LANCHOR0,. + 0
 1182              	modbusData:
 1183 0000 00000000 		.space	50
 1183      00000000 
 1183      00000000 
 1183      00000000 
 1183      00000000 
 1184              		.section	.bss.modbusDataChar,"aw",%nobits
 1185              		.set	.LANCHOR15,. + 0
 1188              	modbusDataChar:
 1189 0000 00       		.space	1
 1190              		.section	.bss.modbusDataCount,"aw",%nobits
 1191              		.align	1
 1192              		.set	.LANCHOR1,. + 0
 1195              	modbusDataCount:
 1196 0000 0000     		.space	2
 1197              		.section	.bss.sensorCounter1_H,"aw",%nobits
 1198              		.set	.LANCHOR8,. + 0
 1201              	sensorCounter1_H:
 1202 0000 00       		.space	1
 1203              		.section	.bss.sensorCounter1_L,"aw",%nobits
 1204              		.set	.LANCHOR9,. + 0
 1207              	sensorCounter1_L:
 1208 0000 00       		.space	1
 1209              		.section	.bss.sensorCounter2_H,"aw",%nobits
 1210              		.set	.LANCHOR10,. + 0
 1213              	sensorCounter2_H:
 1214 0000 00       		.space	1
 1215              		.section	.bss.sensorCounter2_L,"aw",%nobits
 1216              		.set	.LANCHOR11,. + 0
 1219              	sensorCounter2_L:
 1220 0000 00       		.space	1
 1221              		.section	.bss.sensorCounter3_H,"aw",%nobits
 1222              		.set	.LANCHOR12,. + 0
 1225              	sensorCounter3_H:
 1226 0000 00       		.space	1
 1227              		.section	.bss.sensorCounter3_L,"aw",%nobits
 1228              		.set	.LANCHOR13,. + 0
 1231              	sensorCounter3_L:
 1232 0000 00       		.space	1
 1233              		.section	.data.requestModbus1,"aw"
 1234              		.align	2
 1235              		.set	.LANCHOR17,. + 0
 1238              	requestModbus1:
 1239 0000 01040000 		.ascii	"\001\004\000\000\001\3310"
 1239      01D930
 1240              		.section	.data.requestModbus2,"aw"
 1241              		.align	2
 1242              		.set	.LANCHOR18,. + 0
 1245              	requestModbus2:
 1246 0000 02040001 		.ascii	"\002\004\000\001\000\004\240:"
ARM GAS  C:\Users\thinhnnh\AppData\Local\Temp\ccaJjb4h.s 			page 37


 1246      0004A03A 
 1247              		.text
 1248              	.Letext0:
 1249              		.file 3 "c:\\gcc_arm\\arm-none-eabi\\include\\machine\\_default_types.h"
 1250              		.file 4 "c:\\gcc_arm\\arm-none-eabi\\include\\sys\\_stdint.h"
 1251              		.file 5 "Drivers/CMSIS/Device/ST/STM32G0xx/Include/stm32g070xx.h"
 1252              		.file 6 "Drivers/STM32G0xx_HAL_Driver/Inc/stm32g0xx_hal_def.h"
 1253              		.file 7 "Drivers/STM32G0xx_HAL_Driver/Inc/stm32g0xx_hal_rcc.h"
 1254              		.file 8 "Drivers/STM32G0xx_HAL_Driver/Inc/stm32g0xx_hal_dma.h"
 1255              		.file 9 "Drivers/STM32G0xx_HAL_Driver/Inc/stm32g0xx_hal_tim.h"
 1256              		.file 10 "Drivers/STM32G0xx_HAL_Driver/Inc/stm32g0xx_hal_uart.h"
 1257              		.file 11 "Drivers/STM32G0xx_HAL_Driver/Inc/stm32g0xx_ll_dma.h"
 1258              		.file 12 "Drivers/STM32G0xx_HAL_Driver/Inc/stm32g0xx_hal_uart_ex.h"
 1259              		.file 13 "Drivers/STM32G0xx_HAL_Driver/Inc/stm32g0xx_hal_tim_ex.h"
 1260              		.file 14 "Drivers/STM32G0xx_HAL_Driver/Inc/stm32g0xx_hal_pwr_ex.h"
 1261              		.file 15 "Drivers/STM32G0xx_HAL_Driver/Inc/stm32g0xx_hal.h"
 1262              		.file 16 "<built-in>"
ARM GAS  C:\Users\thinhnnh\AppData\Local\Temp\ccaJjb4h.s 			page 38

